
generic_simpleserial-CWLITEARM.elf:     file format elf32-littlearm

Sections:
Idx Name          Size      VMA       LMA       File off  Algn
  0 .isr_vector   00000188  08000000  08000000  00001000  2**0
                  CONTENTS, ALLOC, LOAD, READONLY, DATA
  1 .text         000010b8  08000188  08000188  00001188  2**2
                  CONTENTS, ALLOC, LOAD, READONLY, CODE
  2 .rodata       00000000  08001240  08001248  00002248  2**0
                  CONTENTS, ALLOC, LOAD, DATA
  3 .ARM.extab    00000000  08001240  08001240  00002248  2**0
                  CONTENTS
  4 .ARM          00000000  08001240  08001240  00002248  2**0
                  CONTENTS
  5 .preinit_array 00000000  08001240  08001248  00002248  2**0
                  CONTENTS, ALLOC, LOAD, DATA
  6 .init_array   00000004  08001240  08001240  00002240  2**2
                  CONTENTS, ALLOC, LOAD, DATA
  7 .fini_array   00000004  08001244  08001244  00002244  2**2
                  CONTENTS, ALLOC, LOAD, DATA
  8 .data         00000000  20000000  20000000  00002248  2**0
                  CONTENTS, ALLOC, LOAD, DATA
  9 .bss          00000158  20000000  08001248  00003000  2**2
                  ALLOC
 10 ._user_heap_stack 00000400  20000158  08001248  00003158  2**0
                  ALLOC
 11 .ARM.attributes 0000002a  00000000  00000000  00002248  2**0
                  CONTENTS, READONLY
 12 .debug_info   00004140  00000000  00000000  00002272  2**0
                  CONTENTS, READONLY, DEBUGGING, OCTETS
 13 .debug_abbrev 00000bbd  00000000  00000000  000063b2  2**0
                  CONTENTS, READONLY, DEBUGGING, OCTETS
 14 .debug_loc    000022fb  00000000  00000000  00006f6f  2**0
                  CONTENTS, READONLY, DEBUGGING, OCTETS
 15 .debug_aranges 000001e0  00000000  00000000  0000926a  2**0
                  CONTENTS, READONLY, DEBUGGING, OCTETS
 16 .debug_ranges 000003d0  00000000  00000000  0000944a  2**0
                  CONTENTS, READONLY, DEBUGGING, OCTETS
 17 .debug_line   00002755  00000000  00000000  0000981a  2**0
                  CONTENTS, READONLY, DEBUGGING, OCTETS
 18 .debug_str    00001586  00000000  00000000  0000bf6f  2**0
                  CONTENTS, READONLY, DEBUGGING, OCTETS
 19 .comment      0000003c  00000000  00000000  0000d4f5  2**0
                  CONTENTS, READONLY
 20 .debug_frame  000004d4  00000000  00000000  0000d534  2**2
                  CONTENTS, READONLY, DEBUGGING, OCTETS
 21 .stab         00000144  00000000  00000000  0000da08  2**2
                  CONTENTS, READONLY, DEBUGGING
 22 .stabstr      00000069  00000000  00000000  0000db4c  2**0
                  CONTENTS, READONLY, DEBUGGING
 23 .debug_loclists 000000d3  00000000  00000000  0000dbb5  2**0
                  CONTENTS, READONLY, DEBUGGING, OCTETS
 24 .debug_rnglists 00000026  00000000  00000000  0000dc88  2**0
                  CONTENTS, READONLY, DEBUGGING, OCTETS

Disassembly of section .text:

08000188 <__do_global_dtors_aux>:
 8000188:	b510      	push	{r4, lr}
 800018a:	4c05      	ldr	r4, [pc, #20]	@ (80001a0 <__do_global_dtors_aux+0x18>)
 800018c:	7823      	ldrb	r3, [r4, #0]
 800018e:	b933      	cbnz	r3, 800019e <__do_global_dtors_aux+0x16>
 8000190:	4b04      	ldr	r3, [pc, #16]	@ (80001a4 <__do_global_dtors_aux+0x1c>)
 8000192:	b113      	cbz	r3, 800019a <__do_global_dtors_aux+0x12>
 8000194:	4804      	ldr	r0, [pc, #16]	@ (80001a8 <__do_global_dtors_aux+0x20>)
 8000196:	f3af 8000 	nop.w
 800019a:	2301      	movs	r3, #1
 800019c:	7023      	strb	r3, [r4, #0]
 800019e:	bd10      	pop	{r4, pc}
 80001a0:	2000013c 	.word	0x2000013c
 80001a4:	00000000 	.word	0x00000000
 80001a8:	08001228 	.word	0x08001228

080001ac <frame_dummy>:
 80001ac:	b508      	push	{r3, lr}
 80001ae:	4b03      	ldr	r3, [pc, #12]	@ (80001bc <frame_dummy+0x10>)
 80001b0:	b11b      	cbz	r3, 80001ba <frame_dummy+0xe>
 80001b2:	4903      	ldr	r1, [pc, #12]	@ (80001c0 <frame_dummy+0x14>)
 80001b4:	4803      	ldr	r0, [pc, #12]	@ (80001c4 <frame_dummy+0x18>)
 80001b6:	f3af 8000 	nop.w
 80001ba:	bd08      	pop	{r3, pc}
 80001bc:	00000000 	.word	0x00000000
 80001c0:	20000140 	.word	0x20000140
 80001c4:	08001228 	.word	0x08001228

080001c8 <command>:
void setup(uint8_t *input);
void run(uint8_t *input_data);
void teardown(void);

uint8_t command(uint8_t cmd, uint8_t scmd, uint8_t len, uint8_t *input)
{
 80001c8:	b513      	push	{r0, r1, r4, lr}
 80001ca:	461c      	mov	r4, r3



    trigger_high();
 80001cc:	f000 f9e6 	bl	800059c <trigger_high>


    
    volatile uint8_t i = input[0] ^ input[1];
 80001d0:	7823      	ldrb	r3, [r4, #0]
 80001d2:	7862      	ldrb	r2, [r4, #1]
 80001d4:	4053      	eors	r3, r2
 80001d6:	f88d 3007 	strb.w	r3, [sp, #7]



    trigger_low();
 80001da:	f000 f9e6 	bl	80005aa <trigger_low>



    return 0;
}
 80001de:	2000      	movs	r0, #0
 80001e0:	b002      	add	sp, #8
 80001e2:	bd10      	pop	{r4, pc}

080001e4 <main>:

int main(void)
{
 80001e4:	b508      	push	{r3, lr}
    platform_init();
 80001e6:	f000 f937 	bl	8000458 <platform_init>
    init_uart();
 80001ea:	f000 f975 	bl	80004d8 <init_uart>
    trigger_setup();
 80001ee:	f000 f9b1 	bl	8000554 <trigger_setup>

    simpleserial_init();
 80001f2:	f000 f85b 	bl	80002ac <simpleserial_init>
    simpleserial_addcmd(0x01, 0, command);
 80001f6:	4a04      	ldr	r2, [pc, #16]	@ (8000208 <main+0x24>)
 80001f8:	2100      	movs	r1, #0
 80001fa:	2001      	movs	r0, #1
 80001fc:	f000 f83c 	bl	8000278 <simpleserial_addcmd>
    while (1)
        simpleserial_get();
 8000200:	f000 f8be 	bl	8000380 <simpleserial_get>
    while (1)
 8000204:	e7fc      	b.n	8000200 <main+0x1c>
 8000206:	bf00      	nop
 8000208:	080001c9 	.word	0x080001c9

0800020c <ss_crc>:


// 0xA6 formerly 
#define CW_CRC 0x4D 
uint8_t ss_crc(uint8_t *buf, uint8_t len)
{
 800020c:	b510      	push	{r4, lr}
 800020e:	4602      	mov	r2, r0
	unsigned int k = 0;
	uint8_t crc = 0x00;
	while (len--) {
 8000210:	4401      	add	r1, r0
	uint8_t crc = 0x00;
 8000212:	2000      	movs	r0, #0
	while (len--) {
 8000214:	428a      	cmp	r2, r1
 8000216:	d100      	bne.n	800021a <ss_crc+0xe>
			crc = crc & 0x80 ? (crc << 1) ^ CW_CRC: crc << 1;
		}
	}
	return crc;

}
 8000218:	bd10      	pop	{r4, pc}
		crc ^= *buf++;
 800021a:	f812 3b01 	ldrb.w	r3, [r2], #1
 800021e:	2408      	movs	r4, #8
 8000220:	4058      	eors	r0, r3
			crc = crc & 0x80 ? (crc << 1) ^ CW_CRC: crc << 1;
 8000222:	b243      	sxtb	r3, r0
 8000224:	2b00      	cmp	r3, #0
 8000226:	bfba      	itte	lt
 8000228:	005b      	lsllt	r3, r3, #1
 800022a:	f083 034d 	eorlt.w	r3, r3, #77	@ 0x4d
 800022e:	0043      	lslge	r3, r0, #1
		for (k = 0; k < 8; k++) {
 8000230:	3c01      	subs	r4, #1
			crc = crc & 0x80 ? (crc << 1) ^ CW_CRC: crc << 1;
 8000232:	b2d8      	uxtb	r0, r3
		for (k = 0; k < 8; k++) {
 8000234:	d1f5      	bne.n	8000222 <ss_crc+0x16>
 8000236:	e7ed      	b.n	8000214 <ss_crc+0x8>

08000238 <stuff_data>:
    return 0x00;

}

uint8_t stuff_data(uint8_t *buf, uint8_t len)
{
 8000238:	b530      	push	{r4, r5, lr}
	uint8_t i = 1;
	uint8_t last = 0;
 800023a:	2200      	movs	r2, #0
 800023c:	4604      	mov	r4, r0
	uint8_t i = 1;
 800023e:	2301      	movs	r3, #1
	for (; i < len; i++) {
 8000240:	428b      	cmp	r3, r1
 8000242:	d301      	bcc.n	8000248 <stuff_data+0x10>
			buf[last] = i - last;
			last = i;
		}
	}
	return 0x00;
}
 8000244:	2000      	movs	r0, #0
 8000246:	bd30      	pop	{r4, r5, pc}
		if (buf[i] == FRAME_BYTE) {
 8000248:	f814 5f01 	ldrb.w	r5, [r4, #1]!
 800024c:	b915      	cbnz	r5, 8000254 <stuff_data+0x1c>
			buf[last] = i - last;
 800024e:	1a9d      	subs	r5, r3, r2
 8000250:	5485      	strb	r5, [r0, r2]
			last = i;
 8000252:	461a      	mov	r2, r3
	for (; i < len; i++) {
 8000254:	3301      	adds	r3, #1
 8000256:	b2db      	uxtb	r3, r3
 8000258:	e7f2      	b.n	8000240 <stuff_data+0x8>

0800025a <unstuff_data>:

uint8_t unstuff_data(uint8_t *buf, uint8_t len)
{
 800025a:	b530      	push	{r4, r5, lr}
	uint8_t next = buf[0];
 800025c:	7804      	ldrb	r4, [r0, #0]
	buf[0] = 0x00;
 800025e:	2500      	movs	r5, #0
{
 8000260:	4602      	mov	r2, r0
	buf[0] = 0x00;
 8000262:	7005      	strb	r5, [r0, #0]
	uint8_t next = buf[0];
 8000264:	4620      	mov	r0, r4
	//len -= 1;
	uint8_t tmp = next;
	while ((next < len) && tmp != 0) {
 8000266:	4288      	cmp	r0, r1
 8000268:	d200      	bcs.n	800026c <unstuff_data+0x12>
 800026a:	b904      	cbnz	r4, 800026e <unstuff_data+0x14>
		tmp = buf[next];
		buf[next] = FRAME_BYTE;
		next += tmp;
	}
	return next;
}
 800026c:	bd30      	pop	{r4, r5, pc}
		tmp = buf[next];
 800026e:	5c14      	ldrb	r4, [r2, r0]
		buf[next] = FRAME_BYTE;
 8000270:	5415      	strb	r5, [r2, r0]
		next += tmp;
 8000272:	1903      	adds	r3, r0, r4
 8000274:	b2d8      	uxtb	r0, r3
 8000276:	e7f6      	b.n	8000266 <unstuff_data+0xc>

08000278 <simpleserial_addcmd>:
	simpleserial_addcmd('v', 0, check_version);
    simpleserial_addcmd('w', 0, ss_get_commands);
}

int simpleserial_addcmd(char c, unsigned int len, uint8_t (*fp)(uint8_t, uint8_t, uint8_t, uint8_t*))
{
 8000278:	b538      	push	{r3, r4, r5, lr}
	if(num_commands >= MAX_SS_CMDS) {
 800027a:	4d0b      	ldr	r5, [pc, #44]	@ (80002a8 <simpleserial_addcmd+0x30>)
 800027c:	682b      	ldr	r3, [r5, #0]
 800027e:	2b0f      	cmp	r3, #15
 8000280:	dd04      	ble.n	800028c <simpleserial_addcmd+0x14>
		putch('a');
 8000282:	2061      	movs	r0, #97	@ 0x61
		return 1;
	}

	if(len >= MAX_SS_LEN) {
		putch('b');
 8000284:	f000 f9b2 	bl	80005ec <putch>
		return 1;
 8000288:	2001      	movs	r0, #1
	commands[num_commands].len = len;
	commands[num_commands].fp  = fp;
	num_commands++;

	return 0;
}
 800028a:	bd38      	pop	{r3, r4, r5, pc}
	if(len >= MAX_SS_LEN) {
 800028c:	29ff      	cmp	r1, #255	@ 0xff
 800028e:	d901      	bls.n	8000294 <simpleserial_addcmd+0x1c>
		putch('b');
 8000290:	2062      	movs	r0, #98	@ 0x62
 8000292:	e7f7      	b.n	8000284 <simpleserial_addcmd+0xc>
	commands[num_commands].c   = c;
 8000294:	240c      	movs	r4, #12
 8000296:	fb04 5403 	mla	r4, r4, r3, r5
	num_commands++;
 800029a:	3301      	adds	r3, #1
	commands[num_commands].c   = c;
 800029c:	7120      	strb	r0, [r4, #4]
	commands[num_commands].fp  = fp;
 800029e:	e9c4 1202 	strd	r1, r2, [r4, #8]
	num_commands++;
 80002a2:	602b      	str	r3, [r5, #0]
	return 0;
 80002a4:	2000      	movs	r0, #0
 80002a6:	e7f0      	b.n	800028a <simpleserial_addcmd+0x12>
 80002a8:	20000000 	.word	0x20000000

080002ac <simpleserial_init>:
{
 80002ac:	b508      	push	{r3, lr}
	simpleserial_addcmd('v', 0, check_version);
 80002ae:	4a06      	ldr	r2, [pc, #24]	@ (80002c8 <simpleserial_init+0x1c>)
 80002b0:	2100      	movs	r1, #0
 80002b2:	2076      	movs	r0, #118	@ 0x76
 80002b4:	f7ff ffe0 	bl	8000278 <simpleserial_addcmd>
}
 80002b8:	e8bd 4008 	ldmia.w	sp!, {r3, lr}
    simpleserial_addcmd('w', 0, ss_get_commands);
 80002bc:	4a03      	ldr	r2, [pc, #12]	@ (80002cc <simpleserial_init+0x20>)
 80002be:	2100      	movs	r1, #0
 80002c0:	2077      	movs	r0, #119	@ 0x77
 80002c2:	f7ff bfd9 	b.w	8000278 <simpleserial_addcmd>
 80002c6:	bf00      	nop
 80002c8:	08000327 	.word	0x08000327
 80002cc:	08000345 	.word	0x08000345

080002d0 <simpleserial_put>:
	simpleserial_put('e', 0x01, &err);
	return;
}

void simpleserial_put(char c, uint8_t size, uint8_t* output)
{
 80002d0:	b570      	push	{r4, r5, r6, lr}
 80002d2:	b0c0      	sub	sp, #256	@ 0x100
 80002d4:	460c      	mov	r4, r1
	uint8_t data_buf[MAX_SS_LEN];
	data_buf[0] = 0x00;
 80002d6:	2500      	movs	r5, #0
{
 80002d8:	4611      	mov	r1, r2
	data_buf[1] = c;
 80002da:	f88d 0001 	strb.w	r0, [sp, #1]
	data_buf[2] = size;
	int i = 0;
	for (; i < size; i++) {
		data_buf[i + 3] = output[i];
 80002de:	4622      	mov	r2, r4
 80002e0:	f10d 0003 	add.w	r0, sp, #3
	data_buf[2] = size;
 80002e4:	f88d 4002 	strb.w	r4, [sp, #2]
	data_buf[0] = 0x00;
 80002e8:	f88d 5000 	strb.w	r5, [sp]
		data_buf[i + 3] = output[i];
 80002ec:	f000 ff8e 	bl	800120c <memcpy>
	}
	data_buf[i + 3] = ss_crc(data_buf+1, size+2);
 80002f0:	1ca1      	adds	r1, r4, #2
 80002f2:	b2c9      	uxtb	r1, r1
 80002f4:	f10d 0001 	add.w	r0, sp, #1
 80002f8:	f7ff ff88 	bl	800020c <ss_crc>
 80002fc:	eb0d 0304 	add.w	r3, sp, r4
	data_buf[i + 4] = 0x00;
 8000300:	1d26      	adds	r6, r4, #4
	stuff_data(data_buf, i + 5);
 8000302:	1d61      	adds	r1, r4, #5
	data_buf[i + 3] = ss_crc(data_buf+1, size+2);
 8000304:	70d8      	strb	r0, [r3, #3]
	stuff_data(data_buf, i + 5);
 8000306:	b2c9      	uxtb	r1, r1
 8000308:	4668      	mov	r0, sp
	data_buf[i + 4] = 0x00;
 800030a:	f80d 5006 	strb.w	r5, [sp, r6]
	stuff_data(data_buf, i + 5);
 800030e:	f7ff ff93 	bl	8000238 <stuff_data>
	for (int i = 0; i < size + 5; i++) {
 8000312:	466c      	mov	r4, sp
		putch(data_buf[i]);
 8000314:	f814 0b01 	ldrb.w	r0, [r4], #1
	for (int i = 0; i < size + 5; i++) {
 8000318:	3501      	adds	r5, #1
		putch(data_buf[i]);
 800031a:	f000 f967 	bl	80005ec <putch>
	for (int i = 0; i < size + 5; i++) {
 800031e:	42ae      	cmp	r6, r5
 8000320:	daf8      	bge.n	8000314 <simpleserial_put+0x44>
	}
}
 8000322:	b040      	add	sp, #256	@ 0x100
 8000324:	bd70      	pop	{r4, r5, r6, pc}

08000326 <check_version>:
{
 8000326:	b507      	push	{r0, r1, r2, lr}
	uint8_t ver = SS_VER;
 8000328:	2303      	movs	r3, #3
	simpleserial_put('r', 1, &ver);
 800032a:	f10d 0207 	add.w	r2, sp, #7
 800032e:	2101      	movs	r1, #1
 8000330:	2072      	movs	r0, #114	@ 0x72
	uint8_t ver = SS_VER;
 8000332:	f88d 3007 	strb.w	r3, [sp, #7]
	simpleserial_put('r', 1, &ver);
 8000336:	f7ff ffcb 	bl	80002d0 <simpleserial_put>
}
 800033a:	2000      	movs	r0, #0
 800033c:	b003      	add	sp, #12
 800033e:	f85d fb04 	ldr.w	pc, [sp], #4
 8000342:	0000      	movs	r0, r0

08000344 <ss_get_commands>:
{
 8000344:	b530      	push	{r4, r5, lr}
    for (uint8_t i = 0; i < (num_commands & 0xFF); i++) {
 8000346:	480d      	ldr	r0, [pc, #52]	@ (800037c <ss_get_commands+0x38>)
 8000348:	7801      	ldrb	r1, [r0, #0]
{
 800034a:	b085      	sub	sp, #20
    for (uint8_t i = 0; i < (num_commands & 0xFF); i++) {
 800034c:	2200      	movs	r2, #0
        cmd_chars[i] = commands[i].c;
 800034e:	240c      	movs	r4, #12
    for (uint8_t i = 0; i < (num_commands & 0xFF); i++) {
 8000350:	b2d3      	uxtb	r3, r2
 8000352:	428b      	cmp	r3, r1
 8000354:	f102 0201 	add.w	r2, r2, #1
 8000358:	db06      	blt.n	8000368 <ss_get_commands+0x24>
    simpleserial_put('r', num_commands & 0xFF, (void *)cmd_chars);
 800035a:	466a      	mov	r2, sp
 800035c:	2072      	movs	r0, #114	@ 0x72
 800035e:	f7ff ffb7 	bl	80002d0 <simpleserial_put>
}
 8000362:	2000      	movs	r0, #0
 8000364:	b005      	add	sp, #20
 8000366:	bd30      	pop	{r4, r5, pc}
        cmd_chars[i] = commands[i].c;
 8000368:	f103 0510 	add.w	r5, r3, #16
 800036c:	fb04 0303 	mla	r3, r4, r3, r0
 8000370:	446d      	add	r5, sp
 8000372:	791b      	ldrb	r3, [r3, #4]
 8000374:	f805 3c10 	strb.w	r3, [r5, #-16]
    for (uint8_t i = 0; i < (num_commands & 0xFF); i++) {
 8000378:	e7ea      	b.n	8000350 <ss_get_commands+0xc>
 800037a:	bf00      	nop
 800037c:	20000000 	.word	0x20000000

08000380 <simpleserial_get>:
{
 8000380:	e92d 47f0 	stmdb	sp!, {r4, r5, r6, r7, r8, r9, sl, lr}
 8000384:	b0c2      	sub	sp, #264	@ 0x108
	uint8_t err = 0;
 8000386:	2500      	movs	r5, #0
 8000388:	ae02      	add	r6, sp, #8
 800038a:	f88d 5007 	strb.w	r5, [sp, #7]
	for (int i = 0; i < 4; i++) {
 800038e:	4634      	mov	r4, r6
		data_buf[i] = getch(); //PTR, cmd, scmd, len
 8000390:	f000 f912 	bl	80005b8 <getch>
 8000394:	f806 0b01 	strb.w	r0, [r6], #1
		if (data_buf[i] == FRAME_BYTE) {
 8000398:	b958      	cbnz	r0, 80003b2 <simpleserial_get+0x32>
			goto ERROR;
 800039a:	2005      	movs	r0, #5
			err = SS_ERR_FRAME_BYTE;
 800039c:	f88d 0007 	strb.w	r0, [sp, #7]
	simpleserial_put('e', 0x01, &err);
 80003a0:	f10d 0207 	add.w	r2, sp, #7
 80003a4:	2101      	movs	r1, #1
 80003a6:	2065      	movs	r0, #101	@ 0x65
 80003a8:	f7ff ff92 	bl	80002d0 <simpleserial_put>
}
 80003ac:	b042      	add	sp, #264	@ 0x108
 80003ae:	e8bd 87f0 	ldmia.w	sp!, {r4, r5, r6, r7, r8, r9, sl, pc}
	for (int i = 0; i < 4; i++) {
 80003b2:	3501      	adds	r5, #1
 80003b4:	2d04      	cmp	r5, #4
 80003b6:	d1eb      	bne.n	8000390 <simpleserial_get+0x10>
	uint8_t next_frame = unstuff_data(data_buf, 4);
 80003b8:	4629      	mov	r1, r5
 80003ba:	4620      	mov	r0, r4
 80003bc:	f7ff ff4d 	bl	800025a <unstuff_data>
	for(c = 0; c < num_commands; c++)
 80003c0:	4f24      	ldr	r7, [pc, #144]	@ (8000454 <simpleserial_get+0xd4>)
		if(commands[c].c == data_buf[1])
 80003c2:	7861      	ldrb	r1, [r4, #1]
	for(c = 0; c < num_commands; c++)
 80003c4:	683a      	ldr	r2, [r7, #0]
	uint8_t next_frame = unstuff_data(data_buf, 4);
 80003c6:	4680      	mov	r8, r0
	for(c = 0; c < num_commands; c++)
 80003c8:	2300      	movs	r3, #0
		if(commands[c].c == data_buf[1])
 80003ca:	200c      	movs	r0, #12
	for(c = 0; c < num_commands; c++)
 80003cc:	fa5f f983 	uxtb.w	r9, r3
 80003d0:	4591      	cmp	r9, r2
 80003d2:	db02      	blt.n	80003da <simpleserial_get+0x5a>
	if (c == num_commands) {
 80003d4:	d107      	bne.n	80003e6 <simpleserial_get+0x66>
 80003d6:	2001      	movs	r0, #1
 80003d8:	e7e0      	b.n	800039c <simpleserial_get+0x1c>
		if(commands[c].c == data_buf[1])
 80003da:	fb00 7609 	mla	r6, r0, r9, r7
 80003de:	3301      	adds	r3, #1
 80003e0:	7936      	ldrb	r6, [r6, #4]
 80003e2:	428e      	cmp	r6, r1
 80003e4:	d1f2      	bne.n	80003cc <simpleserial_get+0x4c>
	if ((data_buf[3] + 5) < next_frame) {
 80003e6:	78e3      	ldrb	r3, [r4, #3]
 80003e8:	3305      	adds	r3, #5
 80003ea:	4543      	cmp	r3, r8
 80003ec:	da02      	bge.n	80003f4 <simpleserial_get+0x74>
		goto ERROR;
 80003ee:	2004      	movs	r0, #4
 80003f0:	e7d4      	b.n	800039c <simpleserial_get+0x1c>
 80003f2:	4635      	mov	r5, r6
		data_buf[i] = getch();
 80003f4:	f000 f8e0 	bl	80005b8 <getch>
 80003f8:	5560      	strb	r0, [r4, r5]
		if (data_buf[i] == FRAME_BYTE) {
 80003fa:	2800      	cmp	r0, #0
 80003fc:	d0cd      	beq.n	800039a <simpleserial_get+0x1a>
	for (; i < data_buf[3] + 5; i++) {
 80003fe:	78e3      	ldrb	r3, [r4, #3]
 8000400:	1c6e      	adds	r6, r5, #1
 8000402:	3304      	adds	r3, #4
 8000404:	42b3      	cmp	r3, r6
 8000406:	daf4      	bge.n	80003f2 <simpleserial_get+0x72>
	data_buf[i] = getch();
 8000408:	f000 f8d6 	bl	80005b8 <getch>
 800040c:	55a0      	strb	r0, [r4, r6]
	if (data_buf[i] != FRAME_BYTE) {
 800040e:	2800      	cmp	r0, #0
 8000410:	d1ed      	bne.n	80003ee <simpleserial_get+0x6e>
	unstuff_data(data_buf + next_frame, i - next_frame + 1);
 8000412:	f1c8 0301 	rsb	r3, r8, #1
 8000416:	fa53 f186 	uxtab	r1, r3, r6
 800041a:	b2c9      	uxtb	r1, r1
 800041c:	fa5f fa86 	uxtb.w	sl, r6
 8000420:	eb04 0008 	add.w	r0, r4, r8
 8000424:	f7ff ff19 	bl	800025a <unstuff_data>
	uint8_t crc = ss_crc(data_buf+1, i-2);
 8000428:	f1aa 0102 	sub.w	r1, sl, #2
 800042c:	b2c9      	uxtb	r1, r1
 800042e:	f10d 0009 	add.w	r0, sp, #9
 8000432:	f7ff feeb 	bl	800020c <ss_crc>
	if (crc != data_buf[i-1]) {
 8000436:	5d63      	ldrb	r3, [r4, r5]
 8000438:	4283      	cmp	r3, r0
 800043a:	d109      	bne.n	8000450 <simpleserial_get+0xd0>
	err = commands[c].fp(data_buf[1], data_buf[2], data_buf[3], data_buf+4);
 800043c:	230c      	movs	r3, #12
 800043e:	fb03 7709 	mla	r7, r3, r9, r7
 8000442:	78e2      	ldrb	r2, [r4, #3]
 8000444:	68fd      	ldr	r5, [r7, #12]
 8000446:	78a1      	ldrb	r1, [r4, #2]
 8000448:	7860      	ldrb	r0, [r4, #1]
 800044a:	446b      	add	r3, sp
 800044c:	47a8      	blx	r5
 800044e:	e7a5      	b.n	800039c <simpleserial_get+0x1c>
 8000450:	2002      	movs	r0, #2
 8000452:	e7a3      	b.n	800039c <simpleserial_get+0x1c>
 8000454:	20000000 	.word	0x20000000

08000458 <platform_init>:

UART_HandleTypeDef UartHandle;


void platform_init(void)
{
 8000458:	b570      	push	{r4, r5, r6, lr}
 800045a:	b096      	sub	sp, #88	@ 0x58
     HAL_RCC_ClockConfig(&RCC_ClkInitStruct, flash_latency);
  #else
     RCC_OscInitTypeDef RCC_OscInitStruct;
     RCC_OscInitStruct.OscillatorType = RCC_OSCILLATORTYPE_HSE | RCC_OSCILLATORTYPE_HSI;
     RCC_OscInitStruct.HSEState       = RCC_HSE_BYPASS;
     RCC_OscInitStruct.HSIState       = RCC_HSI_OFF;
 800045c:	2400      	movs	r4, #0
     RCC_OscInitStruct.HSEState       = RCC_HSE_BYPASS;
 800045e:	2603      	movs	r6, #3
 8000460:	f44f 23a0 	mov.w	r3, #327680	@ 0x50000
     RCC_OscInitStruct.PLL.PLLSource  = RCC_PLL_NONE;
     HAL_RCC_OscConfig(&RCC_OscInitStruct);
 8000464:	a80c      	add	r0, sp, #48	@ 0x30

     RCC_ClkInitTypeDef RCC_ClkInitStruct;
     RCC_ClkInitStruct.ClockType      = (RCC_CLOCKTYPE_SYSCLK | RCC_CLOCKTYPE_HCLK | RCC_CLOCKTYPE_PCLK1 | RCC_CLOCKTYPE_PCLK2);
     RCC_ClkInitStruct.SYSCLKSource   = RCC_SYSCLKSOURCE_HSE;
 8000466:	2501      	movs	r5, #1
     RCC_OscInitStruct.HSEState       = RCC_HSE_BYPASS;
 8000468:	e9cd 630c 	strd	r6, r3, [sp, #48]	@ 0x30
     RCC_OscInitStruct.HSIState       = RCC_HSI_OFF;
 800046c:	9410      	str	r4, [sp, #64]	@ 0x40
     RCC_OscInitStruct.PLL.PLLSource  = RCC_PLL_NONE;
 800046e:	9414      	str	r4, [sp, #80]	@ 0x50
     HAL_RCC_OscConfig(&RCC_OscInitStruct);
 8000470:	f000 f8d4 	bl	800061c <HAL_RCC_OscConfig>
     RCC_ClkInitStruct.SYSCLKSource   = RCC_SYSCLKSOURCE_HSE;
 8000474:	230f      	movs	r3, #15
     RCC_ClkInitStruct.AHBCLKDivider  = RCC_SYSCLK_DIV1;
     RCC_ClkInitStruct.APB1CLKDivider = RCC_HCLK_DIV1;
     RCC_ClkInitStruct.APB2CLKDivider = RCC_HCLK_DIV1;
     uint32_t flash_latency = 0;
     HAL_RCC_ClockConfig(&RCC_ClkInitStruct, flash_latency);
 8000476:	4621      	mov	r1, r4
 8000478:	a802      	add	r0, sp, #8
     RCC_ClkInitStruct.SYSCLKSource   = RCC_SYSCLKSOURCE_HSE;
 800047a:	e9cd 3502 	strd	r3, r5, [sp, #8]
     RCC_ClkInitStruct.APB1CLKDivider = RCC_HCLK_DIV1;
 800047e:	e9cd 4404 	strd	r4, r4, [sp, #16]
     RCC_ClkInitStruct.APB2CLKDivider = RCC_HCLK_DIV1;
 8000482:	9406      	str	r4, [sp, #24]
     HAL_RCC_ClockConfig(&RCC_ClkInitStruct, flash_latency);
 8000484:	f000 fb10 	bl	8000aa8 <HAL_RCC_ClockConfig>




#if (PLATFORM==CWLITEARM)
  __HAL_RCC_GPIOC_CLK_ENABLE();
 8000488:	4b11      	ldr	r3, [pc, #68]	@ (80004d0 <platform_init+0x78>)
 800048a:	695a      	ldr	r2, [r3, #20]
 800048c:	f442 2200 	orr.w	r2, r2, #524288	@ 0x80000
 8000490:	615a      	str	r2, [r3, #20]
 8000492:	695b      	ldr	r3, [r3, #20]
  GPIO_InitTypeDef GpioInit;
  GpioInit.Pin       = GPIO_PIN_13 | GPIO_PIN_14;
  GpioInit.Mode      = GPIO_MODE_OUTPUT_PP;
  GpioInit.Pull      = GPIO_NOPULL;
  GpioInit.Speed     = GPIO_SPEED_FREQ_HIGH;
 8000494:	e9cd 4609 	strd	r4, r6, [sp, #36]	@ 0x24
  __HAL_RCC_GPIOC_CLK_ENABLE();
 8000498:	f403 2300 	and.w	r3, r3, #524288	@ 0x80000
  HAL_GPIO_Init(GPIOC, &GpioInit);
 800049c:	4c0d      	ldr	r4, [pc, #52]	@ (80004d4 <platform_init+0x7c>)
  __HAL_RCC_GPIOC_CLK_ENABLE();
 800049e:	9301      	str	r3, [sp, #4]
 80004a0:	9b01      	ldr	r3, [sp, #4]
  HAL_GPIO_Init(GPIOC, &GpioInit);
 80004a2:	a907      	add	r1, sp, #28
  GpioInit.Pin       = GPIO_PIN_13 | GPIO_PIN_14;
 80004a4:	f44f 43c0 	mov.w	r3, #24576	@ 0x6000
  HAL_GPIO_Init(GPIOC, &GpioInit);
 80004a8:	4620      	mov	r0, r4
  GpioInit.Mode      = GPIO_MODE_OUTPUT_PP;
 80004aa:	e9cd 3507 	strd	r3, r5, [sp, #28]
  HAL_GPIO_Init(GPIOC, &GpioInit);
 80004ae:	f000 fb9b 	bl	8000be8 <HAL_GPIO_Init>

  HAL_GPIO_WritePin(GPIOC, GPIO_PIN_13, SET);
 80004b2:	462a      	mov	r2, r5
 80004b4:	4620      	mov	r0, r4
 80004b6:	f44f 5100 	mov.w	r1, #8192	@ 0x2000
 80004ba:	f000 fc53 	bl	8000d64 <HAL_GPIO_WritePin>
  HAL_GPIO_WritePin(GPIOC, GPIO_PIN_14, SET);
 80004be:	462a      	mov	r2, r5
 80004c0:	f44f 4180 	mov.w	r1, #16384	@ 0x4000
 80004c4:	4620      	mov	r0, r4
 80004c6:	f000 fc4d 	bl	8000d64 <HAL_GPIO_WritePin>
#endif
}
 80004ca:	b016      	add	sp, #88	@ 0x58
 80004cc:	bd70      	pop	{r4, r5, r6, pc}
 80004ce:	bf00      	nop
 80004d0:	40021000 	.word	0x40021000
 80004d4:	48000800 	.word	0x48000800

080004d8 <init_uart>:

void init_uart(void)
{
 80004d8:	b510      	push	{r4, lr}
  GPIO_InitTypeDef GpioInit;
  GpioInit.Pin       = GPIO_PIN_9 | GPIO_PIN_10;
  GpioInit.Mode      = GPIO_MODE_AF_PP;
 80004da:	f44f 62c0 	mov.w	r2, #1536	@ 0x600
{
 80004de:	b088      	sub	sp, #32
  GpioInit.Mode      = GPIO_MODE_AF_PP;
 80004e0:	2302      	movs	r3, #2
 80004e2:	e9cd 2303 	strd	r2, r3, [sp, #12]
  GpioInit.Pull      = GPIO_PULLUP;
  GpioInit.Speed     = GPIO_SPEED_FREQ_HIGH;
 80004e6:	2101      	movs	r1, #1
 80004e8:	2303      	movs	r3, #3
 80004ea:	e9cd 1305 	strd	r1, r3, [sp, #20]
  GpioInit.Alternate = GPIO_AF7_USART1;
  __GPIOA_CLK_ENABLE();
 80004ee:	4c16      	ldr	r4, [pc, #88]	@ (8000548 <init_uart+0x70>)
  GpioInit.Alternate = GPIO_AF7_USART1;
 80004f0:	2307      	movs	r3, #7
 80004f2:	9307      	str	r3, [sp, #28]
  __GPIOA_CLK_ENABLE();
 80004f4:	6963      	ldr	r3, [r4, #20]
 80004f6:	f443 3300 	orr.w	r3, r3, #131072	@ 0x20000
 80004fa:	6163      	str	r3, [r4, #20]
 80004fc:	6963      	ldr	r3, [r4, #20]
 80004fe:	f403 3300 	and.w	r3, r3, #131072	@ 0x20000
 8000502:	9301      	str	r3, [sp, #4]
  HAL_GPIO_Init(GPIOA, &GpioInit);
 8000504:	a903      	add	r1, sp, #12
 8000506:	f04f 4090 	mov.w	r0, #1207959552	@ 0x48000000
  __GPIOA_CLK_ENABLE();
 800050a:	9b01      	ldr	r3, [sp, #4]
  HAL_GPIO_Init(GPIOA, &GpioInit);
 800050c:	f000 fb6c 	bl	8000be8 <HAL_GPIO_Init>

  UartHandle.Instance        = USART1;
 8000510:	480e      	ldr	r0, [pc, #56]	@ (800054c <init_uart+0x74>)
  #if SS_VER==SS_VER_2_1
  UartHandle.Init.BaudRate   = 230400;
 8000512:	f8df c03c 	ldr.w	ip, [pc, #60]	@ 8000550 <init_uart+0x78>
 8000516:	f44f 3361 	mov.w	r3, #230400	@ 0x38400
 800051a:	e9c0 c300 	strd	ip, r3, [r0]
  #else
  UartHandle.Init.BaudRate   = 38400;
  #endif
  UartHandle.Init.WordLength = UART_WORDLENGTH_8B;
 800051e:	2300      	movs	r3, #0
  UartHandle.Init.StopBits   = UART_STOPBITS_1;
 8000520:	e9c0 3302 	strd	r3, r3, [r0, #8]
  UartHandle.Init.Parity     = UART_PARITY_NONE;
 8000524:	6103      	str	r3, [r0, #16]
  UartHandle.Init.HwFlowCtl  = UART_HWCONTROL_NONE;
 8000526:	6183      	str	r3, [r0, #24]
  UartHandle.Init.Mode       = UART_MODE_TX_RX;
 8000528:	230c      	movs	r3, #12
 800052a:	6143      	str	r3, [r0, #20]
  __USART1_CLK_ENABLE();
 800052c:	69a3      	ldr	r3, [r4, #24]
 800052e:	f443 4380 	orr.w	r3, r3, #16384	@ 0x4000
 8000532:	61a3      	str	r3, [r4, #24]
 8000534:	69a3      	ldr	r3, [r4, #24]
 8000536:	f403 4380 	and.w	r3, r3, #16384	@ 0x4000
 800053a:	9302      	str	r3, [sp, #8]
 800053c:	9b02      	ldr	r3, [sp, #8]
  HAL_UART_Init(&UartHandle);
 800053e:	f000 fd2f 	bl	8000fa0 <HAL_UART_Init>
}
 8000542:	b008      	add	sp, #32
 8000544:	bd10      	pop	{r4, pc}
 8000546:	bf00      	nop
 8000548:	40021000 	.word	0x40021000
 800054c:	200000c4 	.word	0x200000c4
 8000550:	40013800 	.word	0x40013800

08000554 <trigger_setup>:

void trigger_setup(void)
{
  __HAL_RCC_GPIOA_CLK_ENABLE();
 8000554:	4b10      	ldr	r3, [pc, #64]	@ (8000598 <trigger_setup+0x44>)
{
 8000556:	b530      	push	{r4, r5, lr}
  __HAL_RCC_GPIOA_CLK_ENABLE();
 8000558:	695a      	ldr	r2, [r3, #20]
 800055a:	f442 3200 	orr.w	r2, r2, #131072	@ 0x20000
 800055e:	615a      	str	r2, [r3, #20]
 8000560:	695b      	ldr	r3, [r3, #20]
{
 8000562:	b087      	sub	sp, #28
  __HAL_RCC_GPIOA_CLK_ENABLE();
 8000564:	f403 3300 	and.w	r3, r3, #131072	@ 0x20000
 8000568:	9300      	str	r3, [sp, #0]
 800056a:	9b00      	ldr	r3, [sp, #0]

  GPIO_InitTypeDef GpioInit;
  GpioInit.Pin       = GPIO_PIN_12;
  GpioInit.Mode      = GPIO_MODE_OUTPUT_PP;
 800056c:	f44f 5480 	mov.w	r4, #4096	@ 0x1000
 8000570:	2301      	movs	r3, #1
 8000572:	e9cd 4301 	strd	r4, r3, [sp, #4]
  GpioInit.Pull      = GPIO_NOPULL;
  GpioInit.Speed     = GPIO_SPEED_FREQ_HIGH;
 8000576:	2500      	movs	r5, #0
 8000578:	2303      	movs	r3, #3
  HAL_GPIO_Init(GPIOA, &GpioInit);
 800057a:	a901      	add	r1, sp, #4
 800057c:	f04f 4090 	mov.w	r0, #1207959552	@ 0x48000000
  GpioInit.Speed     = GPIO_SPEED_FREQ_HIGH;
 8000580:	e9cd 5303 	strd	r5, r3, [sp, #12]
  HAL_GPIO_Init(GPIOA, &GpioInit);
 8000584:	f000 fb30 	bl	8000be8 <HAL_GPIO_Init>

  HAL_GPIO_WritePin(GPIOA, GPIO_PIN_12, RESET);
 8000588:	462a      	mov	r2, r5
 800058a:	4621      	mov	r1, r4
 800058c:	f04f 4090 	mov.w	r0, #1207959552	@ 0x48000000
 8000590:	f000 fbe8 	bl	8000d64 <HAL_GPIO_WritePin>
}
 8000594:	b007      	add	sp, #28
 8000596:	bd30      	pop	{r4, r5, pc}
 8000598:	40021000 	.word	0x40021000

0800059c <trigger_high>:

void trigger_high(void)
{
  HAL_GPIO_WritePin(GPIOA, GPIO_PIN_12, SET);
 800059c:	2201      	movs	r2, #1
 800059e:	f44f 5180 	mov.w	r1, #4096	@ 0x1000
 80005a2:	f04f 4090 	mov.w	r0, #1207959552	@ 0x48000000
 80005a6:	f000 bbdd 	b.w	8000d64 <HAL_GPIO_WritePin>

080005aa <trigger_low>:
}

void trigger_low(void)
{
  HAL_GPIO_WritePin(GPIOA, GPIO_PIN_12, RESET);
 80005aa:	2200      	movs	r2, #0
 80005ac:	f44f 5180 	mov.w	r1, #4096	@ 0x1000
 80005b0:	f04f 4090 	mov.w	r0, #1207959552	@ 0x48000000
 80005b4:	f000 bbd6 	b.w	8000d64 <HAL_GPIO_WritePin>

080005b8 <getch>:
}

char getch(void)
{
 80005b8:	b537      	push	{r0, r1, r2, r4, r5, lr}
  uint8_t d;
  while (HAL_UART_Receive(&UartHandle, &d, 1, 5000) != HAL_OK)
 80005ba:	4d0a      	ldr	r5, [pc, #40]	@ (80005e4 <getch+0x2c>)
    USART1->ICR |= (1 << 3);
 80005bc:	4c0a      	ldr	r4, [pc, #40]	@ (80005e8 <getch+0x30>)
  while (HAL_UART_Receive(&UartHandle, &d, 1, 5000) != HAL_OK)
 80005be:	f241 3388 	movw	r3, #5000	@ 0x1388
 80005c2:	2201      	movs	r2, #1
 80005c4:	f10d 0107 	add.w	r1, sp, #7
 80005c8:	4628      	mov	r0, r5
 80005ca:	f000 fd69 	bl	80010a0 <HAL_UART_Receive>
 80005ce:	b918      	cbnz	r0, 80005d8 <getch+0x20>
  //putch(d);
  return d;
}
 80005d0:	f89d 0007 	ldrb.w	r0, [sp, #7]
 80005d4:	b003      	add	sp, #12
 80005d6:	bd30      	pop	{r4, r5, pc}
    USART1->ICR |= (1 << 3);
 80005d8:	6a23      	ldr	r3, [r4, #32]
 80005da:	f043 0308 	orr.w	r3, r3, #8
 80005de:	6223      	str	r3, [r4, #32]
 80005e0:	e7ed      	b.n	80005be <getch+0x6>
 80005e2:	bf00      	nop
 80005e4:	200000c4 	.word	0x200000c4
 80005e8:	40013800 	.word	0x40013800

080005ec <putch>:

void putch(char c)
{
 80005ec:	b507      	push	{r0, r1, r2, lr}
  uint8_t d  = c;
  HAL_UART_Transmit(&UartHandle,  &d, 1, 5000);
 80005ee:	f241 3388 	movw	r3, #5000	@ 0x1388
  uint8_t d  = c;
 80005f2:	f88d 0007 	strb.w	r0, [sp, #7]
  HAL_UART_Transmit(&UartHandle,  &d, 1, 5000);
 80005f6:	2201      	movs	r2, #1
 80005f8:	f10d 0107 	add.w	r1, sp, #7
 80005fc:	4802      	ldr	r0, [pc, #8]	@ (8000608 <putch+0x1c>)
 80005fe:	f000 fcf9 	bl	8000ff4 <HAL_UART_Transmit>
}
 8000602:	b003      	add	sp, #12
 8000604:	f85d fb04 	ldr.w	pc, [sp], #4
 8000608:	200000c4 	.word	0x200000c4

0800060c <HAL_GetTick>:
	hal_sys_tick = 0;
	return HAL_OK;
}
uint32_t HAL_GetTick(void)
{
	return hal_sys_tick++;
 800060c:	4b02      	ldr	r3, [pc, #8]	@ (8000618 <HAL_GetTick+0xc>)
 800060e:	6818      	ldr	r0, [r3, #0]
 8000610:	1c42      	adds	r2, r0, #1
 8000612:	601a      	str	r2, [r3, #0]
}
 8000614:	4770      	bx	lr
 8000616:	bf00      	nop
 8000618:	20000134 	.word	0x20000134

0800061c <HAL_RCC_OscConfig>:
  /* Check the parameters */
  assert_param(RCC_OscInitStruct != NULL);
  assert_param(IS_RCC_OSCILLATORTYPE(RCC_OscInitStruct->OscillatorType));

  /*------------------------------- HSE Configuration ------------------------*/ 
  if(((RCC_OscInitStruct->OscillatorType) & RCC_OSCILLATORTYPE_HSE) == RCC_OSCILLATORTYPE_HSE)
 800061c:	6803      	ldr	r3, [r0, #0]
{
 800061e:	e92d 43f7 	stmdb	sp!, {r0, r1, r2, r4, r5, r6, r7, r8, r9, lr}
  if(((RCC_OscInitStruct->OscillatorType) & RCC_OSCILLATORTYPE_HSE) == RCC_OSCILLATORTYPE_HSE)
 8000622:	07d9      	lsls	r1, r3, #31
{
 8000624:	4604      	mov	r4, r0
  if(((RCC_OscInitStruct->OscillatorType) & RCC_OSCILLATORTYPE_HSE) == RCC_OSCILLATORTYPE_HSE)
 8000626:	d410      	bmi.n	800064a <HAL_RCC_OscConfig+0x2e>
        }
      }
    }
  }
  /*----------------------------- HSI Configuration --------------------------*/ 
  if(((RCC_OscInitStruct->OscillatorType) & RCC_OSCILLATORTYPE_HSI) == RCC_OSCILLATORTYPE_HSI)
 8000628:	6823      	ldr	r3, [r4, #0]
 800062a:	079a      	lsls	r2, r3, #30
 800062c:	d47e      	bmi.n	800072c <HAL_RCC_OscConfig+0x110>
        }
      }
    }
  }
  /*------------------------------ LSI Configuration -------------------------*/ 
  if(((RCC_OscInitStruct->OscillatorType) & RCC_OSCILLATORTYPE_LSI) == RCC_OSCILLATORTYPE_LSI)
 800062e:	6823      	ldr	r3, [r4, #0]
 8000630:	071e      	lsls	r6, r3, #28
 8000632:	f100 80e7 	bmi.w	8000804 <HAL_RCC_OscConfig+0x1e8>
        }
      }
    }
  }
  /*------------------------------ LSE Configuration -------------------------*/ 
  if(((RCC_OscInitStruct->OscillatorType) & RCC_OSCILLATORTYPE_LSE) == RCC_OSCILLATORTYPE_LSE)
 8000636:	6823      	ldr	r3, [r4, #0]
 8000638:	075d      	lsls	r5, r3, #29
 800063a:	f100 812a 	bmi.w	8000892 <HAL_RCC_OscConfig+0x276>
  }

  /*-------------------------------- PLL Configuration -----------------------*/
  /* Check the parameters */
  assert_param(IS_RCC_PLL(RCC_OscInitStruct->PLL.PLLState));
  if ((RCC_OscInitStruct->PLL.PLLState) != RCC_PLL_NONE)
 800063e:	69e2      	ldr	r2, [r4, #28]
 8000640:	2a00      	cmp	r2, #0
 8000642:	f040 81ad 	bne.w	80009a0 <HAL_RCC_OscConfig+0x384>
    {
      return HAL_ERROR;
    }
  }
  
  return HAL_OK;
 8000646:	2000      	movs	r0, #0
 8000648:	e01f      	b.n	800068a <HAL_RCC_OscConfig+0x6e>
    if((__HAL_RCC_GET_SYSCLK_SOURCE() == RCC_SYSCLKSOURCE_STATUS_HSE) 
 800064a:	49ae      	ldr	r1, [pc, #696]	@ (8000904 <HAL_RCC_OscConfig+0x2e8>)
 800064c:	684b      	ldr	r3, [r1, #4]
 800064e:	f003 030c 	and.w	r3, r3, #12
 8000652:	2b04      	cmp	r3, #4
 8000654:	d007      	beq.n	8000666 <HAL_RCC_OscConfig+0x4a>
       || ((__HAL_RCC_GET_SYSCLK_SOURCE() == RCC_SYSCLKSOURCE_STATUS_PLLCLK) && (__HAL_RCC_GET_PLL_OSCSOURCE() == RCC_PLLSOURCE_HSE)))
 8000656:	684b      	ldr	r3, [r1, #4]
 8000658:	f003 030c 	and.w	r3, r3, #12
 800065c:	2b08      	cmp	r3, #8
 800065e:	d117      	bne.n	8000690 <HAL_RCC_OscConfig+0x74>
 8000660:	684b      	ldr	r3, [r1, #4]
 8000662:	03db      	lsls	r3, r3, #15
 8000664:	d514      	bpl.n	8000690 <HAL_RCC_OscConfig+0x74>
__attribute__((always_inline)) __STATIC_INLINE uint32_t __RBIT(uint32_t value)
{
  uint32_t result;

#if       (__CORTEX_M >= 0x03U) || (__CORTEX_SC >= 300U)
   __ASM volatile ("rbit %0, %1" : "=r" (result) : "r" (value) );
 8000666:	f44f 3300 	mov.w	r3, #131072	@ 0x20000
 800066a:	fa93 f2a3 	rbit	r2, r3
      if((__HAL_RCC_GET_FLAG(RCC_FLAG_HSERDY) != RESET) && (RCC_OscInitStruct->HSEState == RCC_HSE_OFF))
 800066e:	6809      	ldr	r1, [r1, #0]
 8000670:	fa93 f3a3 	rbit	r3, r3
 8000674:	2201      	movs	r2, #1
 8000676:	fab3 f383 	clz	r3, r3
 800067a:	fa02 f303 	lsl.w	r3, r2, r3
 800067e:	420b      	tst	r3, r1
 8000680:	d0d2      	beq.n	8000628 <HAL_RCC_OscConfig+0xc>
 8000682:	6863      	ldr	r3, [r4, #4]
 8000684:	2b00      	cmp	r3, #0
 8000686:	d1cf      	bne.n	8000628 <HAL_RCC_OscConfig+0xc>
        return HAL_ERROR;
 8000688:	2001      	movs	r0, #1
}
 800068a:	b003      	add	sp, #12
 800068c:	e8bd 83f0 	ldmia.w	sp!, {r4, r5, r6, r7, r8, r9, pc}
      __HAL_RCC_HSE_CONFIG(RCC_OscInitStruct->HSEState);
 8000690:	6862      	ldr	r2, [r4, #4]
 8000692:	f5b2 3f80 	cmp.w	r2, #65536	@ 0x10000
 8000696:	d122      	bne.n	80006de <HAL_RCC_OscConfig+0xc2>
 8000698:	680b      	ldr	r3, [r1, #0]
 800069a:	f443 3380 	orr.w	r3, r3, #65536	@ 0x10000
 800069e:	600b      	str	r3, [r1, #0]
      __HAL_RCC_HSE_PREDIV_CONFIG(RCC_OscInitStruct->HSEPredivValue);
 80006a0:	6acb      	ldr	r3, [r1, #44]	@ 0x2c
 80006a2:	68a0      	ldr	r0, [r4, #8]
 80006a4:	f023 030f 	bic.w	r3, r3, #15
 80006a8:	4303      	orrs	r3, r0
 80006aa:	62cb      	str	r3, [r1, #44]	@ 0x2c
      if(RCC_OscInitStruct->HSEState != RCC_HSE_OFF)
 80006ac:	b33a      	cbz	r2, 80006fe <HAL_RCC_OscConfig+0xe2>
        tickstart = HAL_GetTick();
 80006ae:	f7ff ffad 	bl	800060c <HAL_GetTick>
 80006b2:	f44f 3600 	mov.w	r6, #131072	@ 0x20000
 80006b6:	4605      	mov	r5, r0
        while(__HAL_RCC_GET_FLAG(RCC_FLAG_HSERDY) == RESET)
 80006b8:	2701      	movs	r7, #1
 80006ba:	fa96 f3a6 	rbit	r3, r6
 80006be:	680a      	ldr	r2, [r1, #0]
 80006c0:	fa96 f3a6 	rbit	r3, r6
 80006c4:	fab3 f383 	clz	r3, r3
 80006c8:	fa07 f303 	lsl.w	r3, r7, r3
 80006cc:	4213      	tst	r3, r2
 80006ce:	d1ab      	bne.n	8000628 <HAL_RCC_OscConfig+0xc>
          if((HAL_GetTick() - tickstart ) > HSE_TIMEOUT_VALUE)
 80006d0:	f7ff ff9c 	bl	800060c <HAL_GetTick>
 80006d4:	1b40      	subs	r0, r0, r5
 80006d6:	2864      	cmp	r0, #100	@ 0x64
 80006d8:	d9ef      	bls.n	80006ba <HAL_RCC_OscConfig+0x9e>
            return HAL_TIMEOUT;
 80006da:	2003      	movs	r0, #3
 80006dc:	e7d5      	b.n	800068a <HAL_RCC_OscConfig+0x6e>
      __HAL_RCC_HSE_CONFIG(RCC_OscInitStruct->HSEState);
 80006de:	680b      	ldr	r3, [r1, #0]
 80006e0:	b932      	cbnz	r2, 80006f0 <HAL_RCC_OscConfig+0xd4>
 80006e2:	f423 3380 	bic.w	r3, r3, #65536	@ 0x10000
 80006e6:	600b      	str	r3, [r1, #0]
 80006e8:	680b      	ldr	r3, [r1, #0]
 80006ea:	f423 2380 	bic.w	r3, r3, #262144	@ 0x40000
 80006ee:	e7d6      	b.n	800069e <HAL_RCC_OscConfig+0x82>
 80006f0:	f5b2 2fa0 	cmp.w	r2, #327680	@ 0x50000
 80006f4:	d1f5      	bne.n	80006e2 <HAL_RCC_OscConfig+0xc6>
 80006f6:	f443 2380 	orr.w	r3, r3, #262144	@ 0x40000
 80006fa:	600b      	str	r3, [r1, #0]
 80006fc:	e7cc      	b.n	8000698 <HAL_RCC_OscConfig+0x7c>
        tickstart = HAL_GetTick();
 80006fe:	f7ff ff85 	bl	800060c <HAL_GetTick>
 8000702:	f44f 3600 	mov.w	r6, #131072	@ 0x20000
 8000706:	4605      	mov	r5, r0
        while(__HAL_RCC_GET_FLAG(RCC_FLAG_HSERDY) != RESET)
 8000708:	2701      	movs	r7, #1
 800070a:	fa96 f3a6 	rbit	r3, r6
 800070e:	680a      	ldr	r2, [r1, #0]
 8000710:	fa96 f3a6 	rbit	r3, r6
 8000714:	fab3 f383 	clz	r3, r3
 8000718:	fa07 f303 	lsl.w	r3, r7, r3
 800071c:	4213      	tst	r3, r2
 800071e:	d083      	beq.n	8000628 <HAL_RCC_OscConfig+0xc>
           if((HAL_GetTick() - tickstart ) > HSE_TIMEOUT_VALUE)
 8000720:	f7ff ff74 	bl	800060c <HAL_GetTick>
 8000724:	1b40      	subs	r0, r0, r5
 8000726:	2864      	cmp	r0, #100	@ 0x64
 8000728:	d9ef      	bls.n	800070a <HAL_RCC_OscConfig+0xee>
 800072a:	e7d6      	b.n	80006da <HAL_RCC_OscConfig+0xbe>
    if((__HAL_RCC_GET_SYSCLK_SOURCE() == RCC_SYSCLKSOURCE_STATUS_HSI) 
 800072c:	4975      	ldr	r1, [pc, #468]	@ (8000904 <HAL_RCC_OscConfig+0x2e8>)
 800072e:	684b      	ldr	r3, [r1, #4]
 8000730:	f013 0f0c 	tst.w	r3, #12
 8000734:	d007      	beq.n	8000746 <HAL_RCC_OscConfig+0x12a>
       || ((__HAL_RCC_GET_SYSCLK_SOURCE() == RCC_SYSCLKSOURCE_STATUS_PLLCLK) && (__HAL_RCC_GET_PLL_OSCSOURCE() == RCC_PLLSOURCE_HSI)))
 8000736:	684b      	ldr	r3, [r1, #4]
 8000738:	f003 030c 	and.w	r3, r3, #12
 800073c:	2b08      	cmp	r3, #8
 800073e:	d11f      	bne.n	8000780 <HAL_RCC_OscConfig+0x164>
 8000740:	684b      	ldr	r3, [r1, #4]
 8000742:	03df      	lsls	r7, r3, #15
 8000744:	d41c      	bmi.n	8000780 <HAL_RCC_OscConfig+0x164>
 8000746:	2302      	movs	r3, #2
 8000748:	fa93 f2a3 	rbit	r2, r3
      if((__HAL_RCC_GET_FLAG(RCC_FLAG_HSIRDY) != RESET) && (RCC_OscInitStruct->HSIState != RCC_HSI_ON))
 800074c:	6808      	ldr	r0, [r1, #0]
 800074e:	fa93 f3a3 	rbit	r3, r3
 8000752:	2201      	movs	r2, #1
 8000754:	fab3 f383 	clz	r3, r3
 8000758:	fa02 f303 	lsl.w	r3, r2, r3
 800075c:	4203      	tst	r3, r0
 800075e:	d002      	beq.n	8000766 <HAL_RCC_OscConfig+0x14a>
 8000760:	6923      	ldr	r3, [r4, #16]
 8000762:	4293      	cmp	r3, r2
 8000764:	d190      	bne.n	8000688 <HAL_RCC_OscConfig+0x6c>
        __HAL_RCC_HSI_CALIBRATIONVALUE_ADJUST(RCC_OscInitStruct->HSICalibrationValue);
 8000766:	6808      	ldr	r0, [r1, #0]
 8000768:	22f8      	movs	r2, #248	@ 0xf8
 800076a:	fa92 f2a2 	rbit	r2, r2
 800076e:	6963      	ldr	r3, [r4, #20]
 8000770:	fab2 f282 	clz	r2, r2
 8000774:	4093      	lsls	r3, r2
 8000776:	f020 02f8 	bic.w	r2, r0, #248	@ 0xf8
 800077a:	4313      	orrs	r3, r2
 800077c:	600b      	str	r3, [r1, #0]
 800077e:	e756      	b.n	800062e <HAL_RCC_OscConfig+0x12>
      if(RCC_OscInitStruct->HSIState != RCC_HSI_OFF)
 8000780:	6922      	ldr	r2, [r4, #16]
 8000782:	2501      	movs	r5, #1
 8000784:	b1f2      	cbz	r2, 80007c4 <HAL_RCC_OscConfig+0x1a8>
 8000786:	fa95 f3a5 	rbit	r3, r5
        __HAL_RCC_HSI_ENABLE();
 800078a:	fab3 f383 	clz	r3, r3
 800078e:	f103 5384 	add.w	r3, r3, #276824064	@ 0x10800000
 8000792:	f503 1384 	add.w	r3, r3, #1081344	@ 0x108000
 8000796:	009b      	lsls	r3, r3, #2
 8000798:	2702      	movs	r7, #2
 800079a:	601d      	str	r5, [r3, #0]
        tickstart = HAL_GetTick();
 800079c:	f7ff ff36 	bl	800060c <HAL_GetTick>
 80007a0:	4606      	mov	r6, r0
 80007a2:	fa97 f3a7 	rbit	r3, r7
        while(__HAL_RCC_GET_FLAG(RCC_FLAG_HSIRDY) == RESET)
 80007a6:	680a      	ldr	r2, [r1, #0]
 80007a8:	fa97 f3a7 	rbit	r3, r7
 80007ac:	fab3 f383 	clz	r3, r3
 80007b0:	fa05 f303 	lsl.w	r3, r5, r3
 80007b4:	4213      	tst	r3, r2
 80007b6:	d1d6      	bne.n	8000766 <HAL_RCC_OscConfig+0x14a>
          if((HAL_GetTick() - tickstart ) > HSI_TIMEOUT_VALUE)
 80007b8:	f7ff ff28 	bl	800060c <HAL_GetTick>
 80007bc:	1b80      	subs	r0, r0, r6
 80007be:	2802      	cmp	r0, #2
 80007c0:	d9ef      	bls.n	80007a2 <HAL_RCC_OscConfig+0x186>
 80007c2:	e78a      	b.n	80006da <HAL_RCC_OscConfig+0xbe>
 80007c4:	fa95 f3a5 	rbit	r3, r5
        __HAL_RCC_HSI_DISABLE();
 80007c8:	fab3 f383 	clz	r3, r3
 80007cc:	f103 5384 	add.w	r3, r3, #276824064	@ 0x10800000
 80007d0:	f503 1384 	add.w	r3, r3, #1081344	@ 0x108000
 80007d4:	009b      	lsls	r3, r3, #2
 80007d6:	2702      	movs	r7, #2
 80007d8:	601a      	str	r2, [r3, #0]
        tickstart = HAL_GetTick();
 80007da:	f7ff ff17 	bl	800060c <HAL_GetTick>
 80007de:	4606      	mov	r6, r0
 80007e0:	fa97 f3a7 	rbit	r3, r7
        while(__HAL_RCC_GET_FLAG(RCC_FLAG_HSIRDY) != RESET)
 80007e4:	680a      	ldr	r2, [r1, #0]
 80007e6:	fa97 f3a7 	rbit	r3, r7
 80007ea:	fab3 f383 	clz	r3, r3
 80007ee:	fa05 f303 	lsl.w	r3, r5, r3
 80007f2:	4213      	tst	r3, r2
 80007f4:	f43f af1b 	beq.w	800062e <HAL_RCC_OscConfig+0x12>
          if((HAL_GetTick() - tickstart ) > HSI_TIMEOUT_VALUE)
 80007f8:	f7ff ff08 	bl	800060c <HAL_GetTick>
 80007fc:	1b80      	subs	r0, r0, r6
 80007fe:	2802      	cmp	r0, #2
 8000800:	d9ee      	bls.n	80007e0 <HAL_RCC_OscConfig+0x1c4>
 8000802:	e76a      	b.n	80006da <HAL_RCC_OscConfig+0xbe>
    if(RCC_OscInitStruct->LSIState != RCC_LSI_OFF)
 8000804:	69a2      	ldr	r2, [r4, #24]
 8000806:	4d3f      	ldr	r5, [pc, #252]	@ (8000904 <HAL_RCC_OscConfig+0x2e8>)
 8000808:	483f      	ldr	r0, [pc, #252]	@ (8000908 <HAL_RCC_OscConfig+0x2ec>)
 800080a:	2101      	movs	r1, #1
 800080c:	b302      	cbz	r2, 8000850 <HAL_RCC_OscConfig+0x234>
 800080e:	fa91 f3a1 	rbit	r3, r1
      __HAL_RCC_LSI_ENABLE();
 8000812:	fab3 f383 	clz	r3, r3
 8000816:	4403      	add	r3, r0
 8000818:	009b      	lsls	r3, r3, #2
 800081a:	2602      	movs	r6, #2
 800081c:	6019      	str	r1, [r3, #0]
      tickstart = HAL_GetTick();
 800081e:	f7ff fef5 	bl	800060c <HAL_GetTick>
 8000822:	4607      	mov	r7, r0
 8000824:	fa96 f3a6 	rbit	r3, r6
 8000828:	fa96 f3a6 	rbit	r3, r6
 800082c:	fa96 f3a6 	rbit	r3, r6
      while(__HAL_RCC_GET_FLAG(RCC_FLAG_LSIRDY) == RESET)
 8000830:	6a6a      	ldr	r2, [r5, #36]	@ 0x24
 8000832:	fa96 f3a6 	rbit	r3, r6
 8000836:	fab3 f383 	clz	r3, r3
 800083a:	fa01 f303 	lsl.w	r3, r1, r3
 800083e:	4213      	tst	r3, r2
 8000840:	f47f aef9 	bne.w	8000636 <HAL_RCC_OscConfig+0x1a>
        if((HAL_GetTick() - tickstart ) > LSI_TIMEOUT_VALUE)
 8000844:	f7ff fee2 	bl	800060c <HAL_GetTick>
 8000848:	1bc0      	subs	r0, r0, r7
 800084a:	2802      	cmp	r0, #2
 800084c:	d9ea      	bls.n	8000824 <HAL_RCC_OscConfig+0x208>
 800084e:	e744      	b.n	80006da <HAL_RCC_OscConfig+0xbe>
 8000850:	fa91 f3a1 	rbit	r3, r1
      __HAL_RCC_LSI_DISABLE();
 8000854:	fab3 f383 	clz	r3, r3
 8000858:	4403      	add	r3, r0
 800085a:	009b      	lsls	r3, r3, #2
 800085c:	2602      	movs	r6, #2
 800085e:	601a      	str	r2, [r3, #0]
      tickstart = HAL_GetTick();
 8000860:	f7ff fed4 	bl	800060c <HAL_GetTick>
 8000864:	4607      	mov	r7, r0
 8000866:	fa96 f3a6 	rbit	r3, r6
 800086a:	fa96 f3a6 	rbit	r3, r6
 800086e:	fa96 f3a6 	rbit	r3, r6
      while(__HAL_RCC_GET_FLAG(RCC_FLAG_LSIRDY) != RESET)
 8000872:	6a6a      	ldr	r2, [r5, #36]	@ 0x24
 8000874:	fa96 f3a6 	rbit	r3, r6
 8000878:	fab3 f383 	clz	r3, r3
 800087c:	fa01 f303 	lsl.w	r3, r1, r3
 8000880:	4213      	tst	r3, r2
 8000882:	f43f aed8 	beq.w	8000636 <HAL_RCC_OscConfig+0x1a>
        if((HAL_GetTick() - tickstart ) > LSI_TIMEOUT_VALUE)
 8000886:	f7ff fec1 	bl	800060c <HAL_GetTick>
 800088a:	1bc0      	subs	r0, r0, r7
 800088c:	2802      	cmp	r0, #2
 800088e:	d9ea      	bls.n	8000866 <HAL_RCC_OscConfig+0x24a>
 8000890:	e723      	b.n	80006da <HAL_RCC_OscConfig+0xbe>
    if(__HAL_RCC_PWR_IS_CLK_DISABLED())
 8000892:	491c      	ldr	r1, [pc, #112]	@ (8000904 <HAL_RCC_OscConfig+0x2e8>)
 8000894:	69cb      	ldr	r3, [r1, #28]
 8000896:	00d8      	lsls	r0, r3, #3
 8000898:	d431      	bmi.n	80008fe <HAL_RCC_OscConfig+0x2e2>
      __HAL_RCC_PWR_CLK_ENABLE();
 800089a:	69cb      	ldr	r3, [r1, #28]
 800089c:	f043 5380 	orr.w	r3, r3, #268435456	@ 0x10000000
 80008a0:	61cb      	str	r3, [r1, #28]
 80008a2:	69cb      	ldr	r3, [r1, #28]
 80008a4:	f003 5380 	and.w	r3, r3, #268435456	@ 0x10000000
 80008a8:	9301      	str	r3, [sp, #4]
 80008aa:	9b01      	ldr	r3, [sp, #4]
      pwrclkchanged = SET;
 80008ac:	2501      	movs	r5, #1
    if(HAL_IS_BIT_CLR(PWR->CR, PWR_CR_DBP))
 80008ae:	4e17      	ldr	r6, [pc, #92]	@ (800090c <HAL_RCC_OscConfig+0x2f0>)
 80008b0:	6833      	ldr	r3, [r6, #0]
 80008b2:	05da      	lsls	r2, r3, #23
 80008b4:	d52c      	bpl.n	8000910 <HAL_RCC_OscConfig+0x2f4>
    __HAL_RCC_LSE_CONFIG(RCC_OscInitStruct->LSEState);
 80008b6:	68e3      	ldr	r3, [r4, #12]
 80008b8:	2b01      	cmp	r3, #1
 80008ba:	d139      	bne.n	8000930 <HAL_RCC_OscConfig+0x314>
 80008bc:	6a0b      	ldr	r3, [r1, #32]
 80008be:	f043 0301 	orr.w	r3, r3, #1
 80008c2:	620b      	str	r3, [r1, #32]
      tickstart = HAL_GetTick();
 80008c4:	f7ff fea2 	bl	800060c <HAL_GetTick>
 80008c8:	2602      	movs	r6, #2
 80008ca:	4607      	mov	r7, r0
      while(__HAL_RCC_GET_FLAG(RCC_FLAG_LSERDY) == RESET)
 80008cc:	f04f 0801 	mov.w	r8, #1
        if((HAL_GetTick() - tickstart ) > RCC_LSE_TIMEOUT_VALUE)
 80008d0:	f241 3988 	movw	r9, #5000	@ 0x1388
 80008d4:	fa96 f3a6 	rbit	r3, r6
 80008d8:	fa96 f3a6 	rbit	r3, r6
      while(__HAL_RCC_GET_FLAG(RCC_FLAG_LSERDY) == RESET)
 80008dc:	6a0a      	ldr	r2, [r1, #32]
 80008de:	fa96 f3a6 	rbit	r3, r6
 80008e2:	fab3 f383 	clz	r3, r3
 80008e6:	fa08 f303 	lsl.w	r3, r8, r3
 80008ea:	4213      	tst	r3, r2
 80008ec:	d052      	beq.n	8000994 <HAL_RCC_OscConfig+0x378>
    if(pwrclkchanged == SET)
 80008ee:	2d00      	cmp	r5, #0
 80008f0:	f43f aea5 	beq.w	800063e <HAL_RCC_OscConfig+0x22>
      __HAL_RCC_PWR_CLK_DISABLE();
 80008f4:	69cb      	ldr	r3, [r1, #28]
 80008f6:	f023 5380 	bic.w	r3, r3, #268435456	@ 0x10000000
 80008fa:	61cb      	str	r3, [r1, #28]
 80008fc:	e69f      	b.n	800063e <HAL_RCC_OscConfig+0x22>
    FlagStatus       pwrclkchanged = RESET;
 80008fe:	2500      	movs	r5, #0
 8000900:	e7d5      	b.n	80008ae <HAL_RCC_OscConfig+0x292>
 8000902:	bf00      	nop
 8000904:	40021000 	.word	0x40021000
 8000908:	10908120 	.word	0x10908120
 800090c:	40007000 	.word	0x40007000
      SET_BIT(PWR->CR, PWR_CR_DBP);
 8000910:	6833      	ldr	r3, [r6, #0]
 8000912:	f443 7380 	orr.w	r3, r3, #256	@ 0x100
 8000916:	6033      	str	r3, [r6, #0]
      tickstart = HAL_GetTick();
 8000918:	f7ff fe78 	bl	800060c <HAL_GetTick>
 800091c:	4607      	mov	r7, r0
      while(HAL_IS_BIT_CLR(PWR->CR, PWR_CR_DBP))
 800091e:	6833      	ldr	r3, [r6, #0]
 8000920:	05db      	lsls	r3, r3, #23
 8000922:	d4c8      	bmi.n	80008b6 <HAL_RCC_OscConfig+0x29a>
        if((HAL_GetTick() - tickstart) > RCC_DBP_TIMEOUT_VALUE)
 8000924:	f7ff fe72 	bl	800060c <HAL_GetTick>
 8000928:	1bc0      	subs	r0, r0, r7
 800092a:	2864      	cmp	r0, #100	@ 0x64
 800092c:	d9f7      	bls.n	800091e <HAL_RCC_OscConfig+0x302>
 800092e:	e6d4      	b.n	80006da <HAL_RCC_OscConfig+0xbe>
    __HAL_RCC_LSE_CONFIG(RCC_OscInitStruct->LSEState);
 8000930:	bb13      	cbnz	r3, 8000978 <HAL_RCC_OscConfig+0x35c>
 8000932:	6a0b      	ldr	r3, [r1, #32]
 8000934:	f023 0301 	bic.w	r3, r3, #1
 8000938:	620b      	str	r3, [r1, #32]
 800093a:	6a0b      	ldr	r3, [r1, #32]
 800093c:	f023 0304 	bic.w	r3, r3, #4
 8000940:	620b      	str	r3, [r1, #32]
      tickstart = HAL_GetTick();
 8000942:	f7ff fe63 	bl	800060c <HAL_GetTick>
 8000946:	2602      	movs	r6, #2
 8000948:	4607      	mov	r7, r0
      while(__HAL_RCC_GET_FLAG(RCC_FLAG_LSERDY) != RESET)
 800094a:	f04f 0801 	mov.w	r8, #1
        if((HAL_GetTick() - tickstart ) > RCC_LSE_TIMEOUT_VALUE)
 800094e:	f241 3988 	movw	r9, #5000	@ 0x1388
 8000952:	fa96 f3a6 	rbit	r3, r6
 8000956:	fa96 f3a6 	rbit	r3, r6
      while(__HAL_RCC_GET_FLAG(RCC_FLAG_LSERDY) != RESET)
 800095a:	6a0a      	ldr	r2, [r1, #32]
 800095c:	fa96 f3a6 	rbit	r3, r6
 8000960:	fab3 f383 	clz	r3, r3
 8000964:	fa08 f303 	lsl.w	r3, r8, r3
 8000968:	4213      	tst	r3, r2
 800096a:	d0c0      	beq.n	80008ee <HAL_RCC_OscConfig+0x2d2>
        if((HAL_GetTick() - tickstart ) > RCC_LSE_TIMEOUT_VALUE)
 800096c:	f7ff fe4e 	bl	800060c <HAL_GetTick>
 8000970:	1bc0      	subs	r0, r0, r7
 8000972:	4548      	cmp	r0, r9
 8000974:	d9ed      	bls.n	8000952 <HAL_RCC_OscConfig+0x336>
 8000976:	e6b0      	b.n	80006da <HAL_RCC_OscConfig+0xbe>
    __HAL_RCC_LSE_CONFIG(RCC_OscInitStruct->LSEState);
 8000978:	2b05      	cmp	r3, #5
 800097a:	6a0b      	ldr	r3, [r1, #32]
 800097c:	d103      	bne.n	8000986 <HAL_RCC_OscConfig+0x36a>
 800097e:	f043 0304 	orr.w	r3, r3, #4
 8000982:	620b      	str	r3, [r1, #32]
 8000984:	e79a      	b.n	80008bc <HAL_RCC_OscConfig+0x2a0>
 8000986:	f023 0301 	bic.w	r3, r3, #1
 800098a:	620b      	str	r3, [r1, #32]
 800098c:	6a0b      	ldr	r3, [r1, #32]
 800098e:	f023 0304 	bic.w	r3, r3, #4
 8000992:	e796      	b.n	80008c2 <HAL_RCC_OscConfig+0x2a6>
        if((HAL_GetTick() - tickstart ) > RCC_LSE_TIMEOUT_VALUE)
 8000994:	f7ff fe3a 	bl	800060c <HAL_GetTick>
 8000998:	1bc0      	subs	r0, r0, r7
 800099a:	4548      	cmp	r0, r9
 800099c:	d99a      	bls.n	80008d4 <HAL_RCC_OscConfig+0x2b8>
 800099e:	e69c      	b.n	80006da <HAL_RCC_OscConfig+0xbe>
    if(__HAL_RCC_GET_SYSCLK_SOURCE() != RCC_SYSCLKSOURCE_STATUS_PLLCLK)
 80009a0:	493f      	ldr	r1, [pc, #252]	@ (8000aa0 <HAL_RCC_OscConfig+0x484>)
 80009a2:	684b      	ldr	r3, [r1, #4]
 80009a4:	f003 030c 	and.w	r3, r3, #12
 80009a8:	2b08      	cmp	r3, #8
 80009aa:	f43f ae6d 	beq.w	8000688 <HAL_RCC_OscConfig+0x6c>
      if((RCC_OscInitStruct->PLL.PLLState) == RCC_PLL_ON)
 80009ae:	2a02      	cmp	r2, #2
 80009b0:	f04f 7380 	mov.w	r3, #16777216	@ 0x1000000
 80009b4:	d150      	bne.n	8000a58 <HAL_RCC_OscConfig+0x43c>
 80009b6:	fa93 f3a3 	rbit	r3, r3
        __HAL_RCC_PLL_DISABLE();
 80009ba:	fab3 f383 	clz	r3, r3
 80009be:	f103 5384 	add.w	r3, r3, #276824064	@ 0x10800000
 80009c2:	f503 1384 	add.w	r3, r3, #1081344	@ 0x108000
 80009c6:	009b      	lsls	r3, r3, #2
 80009c8:	2200      	movs	r2, #0
 80009ca:	601a      	str	r2, [r3, #0]
        tickstart = HAL_GetTick();
 80009cc:	f7ff fe1e 	bl	800060c <HAL_GetTick>
          if((HAL_GetTick() - tickstart ) > PLL_TIMEOUT_VALUE)
 80009d0:	f8df 80d0 	ldr.w	r8, [pc, #208]	@ 8000aa4 <HAL_RCC_OscConfig+0x488>
        tickstart = HAL_GetTick();
 80009d4:	4606      	mov	r6, r0
 80009d6:	f04f 7700 	mov.w	r7, #33554432	@ 0x2000000
        while(__HAL_RCC_GET_FLAG(RCC_FLAG_PLLRDY)  != RESET)
 80009da:	2501      	movs	r5, #1
 80009dc:	fa97 f3a7 	rbit	r3, r7
 80009e0:	680a      	ldr	r2, [r1, #0]
 80009e2:	fa97 f3a7 	rbit	r3, r7
 80009e6:	fab3 f383 	clz	r3, r3
 80009ea:	fa05 f303 	lsl.w	r3, r5, r3
 80009ee:	4213      	tst	r3, r2
 80009f0:	d12c      	bne.n	8000a4c <HAL_RCC_OscConfig+0x430>
      __HAL_RCC_PLL_CONFIG(RCC_OscInitStruct->PLL.PLLSource,
 80009f2:	e9d4 0308 	ldrd	r0, r3, [r4, #32]
 80009f6:	684a      	ldr	r2, [r1, #4]
 80009f8:	4303      	orrs	r3, r0
 80009fa:	f422 1274 	bic.w	r2, r2, #3997696	@ 0x3d0000
 80009fe:	4313      	orrs	r3, r2
 8000a00:	604b      	str	r3, [r1, #4]
 8000a02:	f04f 7380 	mov.w	r3, #16777216	@ 0x1000000
 8000a06:	fa93 f3a3 	rbit	r3, r3
        __HAL_RCC_PLL_ENABLE();
 8000a0a:	fab3 f383 	clz	r3, r3
 8000a0e:	f103 5384 	add.w	r3, r3, #276824064	@ 0x10800000
 8000a12:	f503 1384 	add.w	r3, r3, #1081344	@ 0x108000
 8000a16:	009b      	lsls	r3, r3, #2
          if((HAL_GetTick() - tickstart ) > PLL_TIMEOUT_VALUE)
 8000a18:	4f22      	ldr	r7, [pc, #136]	@ (8000aa4 <HAL_RCC_OscConfig+0x488>)
        __HAL_RCC_PLL_ENABLE();
 8000a1a:	601d      	str	r5, [r3, #0]
        tickstart = HAL_GetTick();
 8000a1c:	f7ff fdf6 	bl	800060c <HAL_GetTick>
 8000a20:	f04f 7500 	mov.w	r5, #33554432	@ 0x2000000
 8000a24:	4604      	mov	r4, r0
        while(__HAL_RCC_GET_FLAG(RCC_FLAG_PLLRDY)  == RESET)
 8000a26:	2601      	movs	r6, #1
 8000a28:	fa95 f3a5 	rbit	r3, r5
 8000a2c:	680a      	ldr	r2, [r1, #0]
 8000a2e:	fa95 f3a5 	rbit	r3, r5
 8000a32:	fab3 f383 	clz	r3, r3
 8000a36:	fa06 f303 	lsl.w	r3, r6, r3
 8000a3a:	4213      	tst	r3, r2
 8000a3c:	f47f ae03 	bne.w	8000646 <HAL_RCC_OscConfig+0x2a>
          if((HAL_GetTick() - tickstart ) > PLL_TIMEOUT_VALUE)
 8000a40:	f7ff fde4 	bl	800060c <HAL_GetTick>
 8000a44:	1b00      	subs	r0, r0, r4
 8000a46:	42b8      	cmp	r0, r7
 8000a48:	d9ee      	bls.n	8000a28 <HAL_RCC_OscConfig+0x40c>
 8000a4a:	e646      	b.n	80006da <HAL_RCC_OscConfig+0xbe>
          if((HAL_GetTick() - tickstart ) > PLL_TIMEOUT_VALUE)
 8000a4c:	f7ff fdde 	bl	800060c <HAL_GetTick>
 8000a50:	1b83      	subs	r3, r0, r6
 8000a52:	4543      	cmp	r3, r8
 8000a54:	d9c2      	bls.n	80009dc <HAL_RCC_OscConfig+0x3c0>
 8000a56:	e640      	b.n	80006da <HAL_RCC_OscConfig+0xbe>
 8000a58:	fa93 f3a3 	rbit	r3, r3
        __HAL_RCC_PLL_DISABLE();
 8000a5c:	fab3 f383 	clz	r3, r3
 8000a60:	f103 5384 	add.w	r3, r3, #276824064	@ 0x10800000
 8000a64:	f503 1384 	add.w	r3, r3, #1081344	@ 0x108000
 8000a68:	009b      	lsls	r3, r3, #2
 8000a6a:	2200      	movs	r2, #0
 8000a6c:	601a      	str	r2, [r3, #0]
        tickstart = HAL_GetTick();
 8000a6e:	f7ff fdcd 	bl	800060c <HAL_GetTick>
          if((HAL_GetTick() - tickstart ) > PLL_TIMEOUT_VALUE)
 8000a72:	4f0c      	ldr	r7, [pc, #48]	@ (8000aa4 <HAL_RCC_OscConfig+0x488>)
        tickstart = HAL_GetTick();
 8000a74:	4604      	mov	r4, r0
 8000a76:	f04f 7500 	mov.w	r5, #33554432	@ 0x2000000
        while(__HAL_RCC_GET_FLAG(RCC_FLAG_PLLRDY)  != RESET)
 8000a7a:	2601      	movs	r6, #1
 8000a7c:	fa95 f3a5 	rbit	r3, r5
 8000a80:	680a      	ldr	r2, [r1, #0]
 8000a82:	fa95 f3a5 	rbit	r3, r5
 8000a86:	fab3 f383 	clz	r3, r3
 8000a8a:	fa06 f303 	lsl.w	r3, r6, r3
 8000a8e:	4213      	tst	r3, r2
 8000a90:	f43f add9 	beq.w	8000646 <HAL_RCC_OscConfig+0x2a>
          if((HAL_GetTick() - tickstart ) > PLL_TIMEOUT_VALUE)
 8000a94:	f7ff fdba 	bl	800060c <HAL_GetTick>
 8000a98:	1b00      	subs	r0, r0, r4
 8000a9a:	42b8      	cmp	r0, r7
 8000a9c:	d9ee      	bls.n	8000a7c <HAL_RCC_OscConfig+0x460>
 8000a9e:	e61c      	b.n	80006da <HAL_RCC_OscConfig+0xbe>
 8000aa0:	40021000 	.word	0x40021000
 8000aa4:	00030d40 	.word	0x00030d40

08000aa8 <HAL_RCC_ClockConfig>:
  /* To correctly read data from FLASH memory, the number of wait states (LATENCY) 
  must be correctly programmed according to the frequency of the CPU clock 
    (HCLK) of the device. */

  /* Increasing the number of wait states because of higher CPU frequency */
  if(FLatency > (FLASH->ACR & FLASH_ACR_LATENCY))
 8000aa8:	4a4d      	ldr	r2, [pc, #308]	@ (8000be0 <HAL_RCC_ClockConfig+0x138>)
{
 8000aaa:	b5f8      	push	{r3, r4, r5, r6, r7, lr}
  if(FLatency > (FLASH->ACR & FLASH_ACR_LATENCY))
 8000aac:	6813      	ldr	r3, [r2, #0]
 8000aae:	f003 0307 	and.w	r3, r3, #7
 8000ab2:	428b      	cmp	r3, r1
{
 8000ab4:	4604      	mov	r4, r0
  if(FLatency > (FLASH->ACR & FLASH_ACR_LATENCY))
 8000ab6:	d311      	bcc.n	8000adc <HAL_RCC_ClockConfig+0x34>
      return HAL_ERROR;
    }
  }

  /*-------------------------- HCLK Configuration --------------------------*/
  if(((RCC_ClkInitStruct->ClockType) & RCC_CLOCKTYPE_HCLK) == RCC_CLOCKTYPE_HCLK)
 8000ab8:	6822      	ldr	r2, [r4, #0]
 8000aba:	0795      	lsls	r5, r2, #30
 8000abc:	d41a      	bmi.n	8000af4 <HAL_RCC_ClockConfig+0x4c>
    assert_param(IS_RCC_HCLK(RCC_ClkInitStruct->AHBCLKDivider));
    MODIFY_REG(RCC->CFGR, RCC_CFGR_HPRE, RCC_ClkInitStruct->AHBCLKDivider);
  }

  /*------------------------- SYSCLK Configuration ---------------------------*/ 
  if(((RCC_ClkInitStruct->ClockType) & RCC_CLOCKTYPE_SYSCLK) == RCC_CLOCKTYPE_SYSCLK)
 8000abe:	07d0      	lsls	r0, r2, #31
 8000ac0:	d420      	bmi.n	8000b04 <HAL_RCC_ClockConfig+0x5c>
        }
      }
    }      
  }    
  /* Decreasing the number of wait states because of lower CPU frequency */
  if(FLatency < (FLASH->ACR & FLASH_ACR_LATENCY))
 8000ac2:	4a47      	ldr	r2, [pc, #284]	@ (8000be0 <HAL_RCC_ClockConfig+0x138>)
 8000ac4:	6813      	ldr	r3, [r2, #0]
 8000ac6:	f003 0307 	and.w	r3, r3, #7
 8000aca:	428b      	cmp	r3, r1
 8000acc:	d86c      	bhi.n	8000ba8 <HAL_RCC_ClockConfig+0x100>
      return HAL_ERROR;
    }
  }    

  /*-------------------------- PCLK1 Configuration ---------------------------*/ 
  if(((RCC_ClkInitStruct->ClockType) & RCC_CLOCKTYPE_PCLK1) == RCC_CLOCKTYPE_PCLK1)
 8000ace:	6822      	ldr	r2, [r4, #0]
 8000ad0:	0751      	lsls	r1, r2, #29
 8000ad2:	d474      	bmi.n	8000bbe <HAL_RCC_ClockConfig+0x116>
    assert_param(IS_RCC_PCLK(RCC_ClkInitStruct->APB1CLKDivider));
    MODIFY_REG(RCC->CFGR, RCC_CFGR_PPRE1, RCC_ClkInitStruct->APB1CLKDivider);
  }
  
  /*-------------------------- PCLK2 Configuration ---------------------------*/ 
  if(((RCC_ClkInitStruct->ClockType) & RCC_CLOCKTYPE_PCLK2) == RCC_CLOCKTYPE_PCLK2)
 8000ad4:	0713      	lsls	r3, r2, #28
 8000ad6:	d47a      	bmi.n	8000bce <HAL_RCC_ClockConfig+0x126>
  //SystemCoreClock = HAL_RCC_GetSysClockFreq() >> AHBPrescTable[(RCC->CFGR & RCC_CFGR_HPRE)>> RCC_CFGR_HPRE_BITNUMBER];

  /* Configure the source of time base considering new system clocks settings*/
  //HAL_InitTick (TICK_INT_PRIORITY);
  
  return HAL_OK;
 8000ad8:	2000      	movs	r0, #0
 8000ada:	e00a      	b.n	8000af2 <HAL_RCC_ClockConfig+0x4a>
    __HAL_FLASH_SET_LATENCY(FLatency);
 8000adc:	6813      	ldr	r3, [r2, #0]
 8000ade:	f023 0307 	bic.w	r3, r3, #7
 8000ae2:	430b      	orrs	r3, r1
 8000ae4:	6013      	str	r3, [r2, #0]
    if((FLASH->ACR & FLASH_ACR_LATENCY) != FLatency)
 8000ae6:	6813      	ldr	r3, [r2, #0]
 8000ae8:	f003 0307 	and.w	r3, r3, #7
 8000aec:	428b      	cmp	r3, r1
 8000aee:	d0e3      	beq.n	8000ab8 <HAL_RCC_ClockConfig+0x10>
      return HAL_ERROR;
 8000af0:	2001      	movs	r0, #1
}
 8000af2:	bdf8      	pop	{r3, r4, r5, r6, r7, pc}
    MODIFY_REG(RCC->CFGR, RCC_CFGR_HPRE, RCC_ClkInitStruct->AHBCLKDivider);
 8000af4:	483b      	ldr	r0, [pc, #236]	@ (8000be4 <HAL_RCC_ClockConfig+0x13c>)
 8000af6:	68a5      	ldr	r5, [r4, #8]
 8000af8:	6843      	ldr	r3, [r0, #4]
 8000afa:	f023 03f0 	bic.w	r3, r3, #240	@ 0xf0
 8000afe:	432b      	orrs	r3, r5
 8000b00:	6043      	str	r3, [r0, #4]
 8000b02:	e7dc      	b.n	8000abe <HAL_RCC_ClockConfig+0x16>
    if(RCC_ClkInitStruct->SYSCLKSource == RCC_SYSCLKSOURCE_HSE)
 8000b04:	6862      	ldr	r2, [r4, #4]
 8000b06:	4d37      	ldr	r5, [pc, #220]	@ (8000be4 <HAL_RCC_ClockConfig+0x13c>)
 8000b08:	2a01      	cmp	r2, #1
 8000b0a:	d125      	bne.n	8000b58 <HAL_RCC_ClockConfig+0xb0>
 8000b0c:	f44f 3300 	mov.w	r3, #131072	@ 0x20000
 8000b10:	fa93 f0a3 	rbit	r0, r3
      if(__HAL_RCC_GET_FLAG(RCC_FLAG_HSERDY) == RESET)
 8000b14:	6828      	ldr	r0, [r5, #0]
 8000b16:	fa93 f3a3 	rbit	r3, r3
 8000b1a:	fab3 f383 	clz	r3, r3
 8000b1e:	fa02 f303 	lsl.w	r3, r2, r3
 8000b22:	4203      	tst	r3, r0
      if(__HAL_RCC_GET_FLAG(RCC_FLAG_HSIRDY) == RESET)
 8000b24:	d0e4      	beq.n	8000af0 <HAL_RCC_ClockConfig+0x48>
    __HAL_RCC_SYSCLK_CONFIG(RCC_ClkInitStruct->SYSCLKSource);
 8000b26:	686b      	ldr	r3, [r5, #4]
 8000b28:	f023 0303 	bic.w	r3, r3, #3
 8000b2c:	4313      	orrs	r3, r2
 8000b2e:	606b      	str	r3, [r5, #4]
    tickstart = HAL_GetTick();
 8000b30:	f7ff fd6c 	bl	800060c <HAL_GetTick>
    if(RCC_ClkInitStruct->SYSCLKSource == RCC_SYSCLKSOURCE_HSE)
 8000b34:	6863      	ldr	r3, [r4, #4]
 8000b36:	2b01      	cmp	r3, #1
    tickstart = HAL_GetTick();
 8000b38:	4606      	mov	r6, r0
        if((HAL_GetTick() - tickstart ) > CLOCKSWITCH_TIMEOUT_VALUE)
 8000b3a:	f241 3788 	movw	r7, #5000	@ 0x1388
    if(RCC_ClkInitStruct->SYSCLKSource == RCC_SYSCLKSOURCE_HSE)
 8000b3e:	d11c      	bne.n	8000b7a <HAL_RCC_ClockConfig+0xd2>
      while (__HAL_RCC_GET_SYSCLK_SOURCE() != RCC_SYSCLKSOURCE_STATUS_HSE)
 8000b40:	686b      	ldr	r3, [r5, #4]
 8000b42:	f003 030c 	and.w	r3, r3, #12
 8000b46:	2b04      	cmp	r3, #4
 8000b48:	d0bb      	beq.n	8000ac2 <HAL_RCC_ClockConfig+0x1a>
        if((HAL_GetTick() - tickstart ) > CLOCKSWITCH_TIMEOUT_VALUE)
 8000b4a:	f7ff fd5f 	bl	800060c <HAL_GetTick>
 8000b4e:	1b80      	subs	r0, r0, r6
 8000b50:	42b8      	cmp	r0, r7
 8000b52:	d9f5      	bls.n	8000b40 <HAL_RCC_ClockConfig+0x98>
          return HAL_TIMEOUT;
 8000b54:	2003      	movs	r0, #3
 8000b56:	e7cc      	b.n	8000af2 <HAL_RCC_ClockConfig+0x4a>
    else if(RCC_ClkInitStruct->SYSCLKSource == RCC_SYSCLKSOURCE_PLLCLK)
 8000b58:	2a02      	cmp	r2, #2
 8000b5a:	bf0c      	ite	eq
 8000b5c:	f04f 7300 	moveq.w	r3, #33554432	@ 0x2000000
 8000b60:	2302      	movne	r3, #2
 8000b62:	fa93 f0a3 	rbit	r0, r3
      if(__HAL_RCC_GET_FLAG(RCC_FLAG_HSIRDY) == RESET)
 8000b66:	682e      	ldr	r6, [r5, #0]
 8000b68:	fa93 f3a3 	rbit	r3, r3
 8000b6c:	2001      	movs	r0, #1
 8000b6e:	fab3 f383 	clz	r3, r3
 8000b72:	fa00 f303 	lsl.w	r3, r0, r3
 8000b76:	4233      	tst	r3, r6
 8000b78:	e7d4      	b.n	8000b24 <HAL_RCC_ClockConfig+0x7c>
    else if(RCC_ClkInitStruct->SYSCLKSource == RCC_SYSCLKSOURCE_PLLCLK)
 8000b7a:	2b02      	cmp	r3, #2
 8000b7c:	d10f      	bne.n	8000b9e <HAL_RCC_ClockConfig+0xf6>
      while (__HAL_RCC_GET_SYSCLK_SOURCE() != RCC_SYSCLKSOURCE_STATUS_PLLCLK)
 8000b7e:	686b      	ldr	r3, [r5, #4]
 8000b80:	f003 030c 	and.w	r3, r3, #12
 8000b84:	2b08      	cmp	r3, #8
 8000b86:	d09c      	beq.n	8000ac2 <HAL_RCC_ClockConfig+0x1a>
        if((HAL_GetTick() - tickstart ) > CLOCKSWITCH_TIMEOUT_VALUE)
 8000b88:	f7ff fd40 	bl	800060c <HAL_GetTick>
 8000b8c:	1b80      	subs	r0, r0, r6
 8000b8e:	42b8      	cmp	r0, r7
 8000b90:	d9f5      	bls.n	8000b7e <HAL_RCC_ClockConfig+0xd6>
 8000b92:	e7df      	b.n	8000b54 <HAL_RCC_ClockConfig+0xac>
        if((HAL_GetTick() - tickstart ) > CLOCKSWITCH_TIMEOUT_VALUE)
 8000b94:	f7ff fd3a 	bl	800060c <HAL_GetTick>
 8000b98:	1b80      	subs	r0, r0, r6
 8000b9a:	42b8      	cmp	r0, r7
 8000b9c:	d8da      	bhi.n	8000b54 <HAL_RCC_ClockConfig+0xac>
      while (__HAL_RCC_GET_SYSCLK_SOURCE() != RCC_SYSCLKSOURCE_STATUS_HSI)
 8000b9e:	686b      	ldr	r3, [r5, #4]
 8000ba0:	f013 0f0c 	tst.w	r3, #12
 8000ba4:	d1f6      	bne.n	8000b94 <HAL_RCC_ClockConfig+0xec>
 8000ba6:	e78c      	b.n	8000ac2 <HAL_RCC_ClockConfig+0x1a>
    __HAL_FLASH_SET_LATENCY(FLatency);
 8000ba8:	6813      	ldr	r3, [r2, #0]
 8000baa:	f023 0307 	bic.w	r3, r3, #7
 8000bae:	430b      	orrs	r3, r1
 8000bb0:	6013      	str	r3, [r2, #0]
    if((FLASH->ACR & FLASH_ACR_LATENCY) != FLatency)
 8000bb2:	6813      	ldr	r3, [r2, #0]
 8000bb4:	f003 0307 	and.w	r3, r3, #7
 8000bb8:	428b      	cmp	r3, r1
 8000bba:	d199      	bne.n	8000af0 <HAL_RCC_ClockConfig+0x48>
 8000bbc:	e787      	b.n	8000ace <HAL_RCC_ClockConfig+0x26>
    MODIFY_REG(RCC->CFGR, RCC_CFGR_PPRE1, RCC_ClkInitStruct->APB1CLKDivider);
 8000bbe:	4909      	ldr	r1, [pc, #36]	@ (8000be4 <HAL_RCC_ClockConfig+0x13c>)
 8000bc0:	68e0      	ldr	r0, [r4, #12]
 8000bc2:	684b      	ldr	r3, [r1, #4]
 8000bc4:	f423 63e0 	bic.w	r3, r3, #1792	@ 0x700
 8000bc8:	4303      	orrs	r3, r0
 8000bca:	604b      	str	r3, [r1, #4]
 8000bcc:	e782      	b.n	8000ad4 <HAL_RCC_ClockConfig+0x2c>
    MODIFY_REG(RCC->CFGR, RCC_CFGR_PPRE2, ((RCC_ClkInitStruct->APB2CLKDivider) << 3U));
 8000bce:	4a05      	ldr	r2, [pc, #20]	@ (8000be4 <HAL_RCC_ClockConfig+0x13c>)
 8000bd0:	6921      	ldr	r1, [r4, #16]
 8000bd2:	6853      	ldr	r3, [r2, #4]
 8000bd4:	f423 5360 	bic.w	r3, r3, #14336	@ 0x3800
 8000bd8:	ea43 03c1 	orr.w	r3, r3, r1, lsl #3
 8000bdc:	6053      	str	r3, [r2, #4]
 8000bde:	e77b      	b.n	8000ad8 <HAL_RCC_ClockConfig+0x30>
 8000be0:	40022000 	.word	0x40022000
 8000be4:	40021000 	.word	0x40021000

08000be8 <HAL_GPIO_Init>:
  * @param  GPIO_Init: pointer to a GPIO_InitTypeDef structure that contains
  *         the configuration information for the specified GPIO peripheral.
  * @retval None
  */
void HAL_GPIO_Init(GPIO_TypeDef  *GPIOx, GPIO_InitTypeDef *GPIO_Init)
{
 8000be8:	e92d 4ff7 	stmdb	sp!, {r0, r1, r2, r4, r5, r6, r7, r8, r9, sl, fp, lr}
      /*--------------------- EXTI Mode Configuration ------------------------*/
      /* Configure the External Interrupt or event for the current IO */
      if((GPIO_Init->Mode & EXTI_MODE) == EXTI_MODE)
      {
        /* Enable SYSCFG Clock */
        __HAL_RCC_SYSCFG_CLK_ENABLE();
 8000bec:	f8df 8168 	ldr.w	r8, [pc, #360]	@ 8000d58 <HAL_GPIO_Init+0x170>
        temp &= ~((0x0FU) << (4U * (position & 0x03U)));
        temp |= (GPIO_GET_INDEX(GPIOx) << (4U * (position & 0x03U)));
        SYSCFG->EXTICR[position >> 2] = temp;

        /* Clear EXTI line configuration */
        temp = EXTI->IMR;
 8000bf0:	4c5a      	ldr	r4, [pc, #360]	@ (8000d5c <HAL_GPIO_Init+0x174>)
  uint32_t position = 0x00U;
 8000bf2:	2300      	movs	r3, #0
        temp &= ~((0x0FU) << (4U * (position & 0x03U)));
 8000bf4:	f04f 090f 	mov.w	r9, #15
  while (((GPIO_Init->Pin) >> position) != RESET)
 8000bf8:	680a      	ldr	r2, [r1, #0]
 8000bfa:	fa32 f503 	lsrs.w	r5, r2, r3
 8000bfe:	d102      	bne.n	8000c06 <HAL_GPIO_Init+0x1e>
      }
    }
    
    position++;
  }
}
 8000c00:	b003      	add	sp, #12
 8000c02:	e8bd 8ff0 	ldmia.w	sp!, {r4, r5, r6, r7, r8, r9, sl, fp, pc}
    iocurrent = (GPIO_Init->Pin) & (1U << position);
 8000c06:	2501      	movs	r5, #1
 8000c08:	fa05 fa03 	lsl.w	sl, r5, r3
    if(iocurrent)
 8000c0c:	ea1a 0202 	ands.w	r2, sl, r2
 8000c10:	f000 8098 	beq.w	8000d44 <HAL_GPIO_Init+0x15c>
      if((GPIO_Init->Mode == GPIO_MODE_AF_PP) || (GPIO_Init->Mode == GPIO_MODE_AF_OD))
 8000c14:	684d      	ldr	r5, [r1, #4]
 8000c16:	f025 0e10 	bic.w	lr, r5, #16
 8000c1a:	f1be 0f02 	cmp.w	lr, #2
 8000c1e:	d111      	bne.n	8000c44 <HAL_GPIO_Init+0x5c>
        temp = GPIOx->AFR[position >> 3];
 8000c20:	08df      	lsrs	r7, r3, #3
 8000c22:	eb00 0787 	add.w	r7, r0, r7, lsl #2
        temp &= ~(0xFU << ((uint32_t)(position & 0x07U) * 4U)) ;
 8000c26:	f003 0c07 	and.w	ip, r3, #7
        temp = GPIOx->AFR[position >> 3];
 8000c2a:	6a3e      	ldr	r6, [r7, #32]
        temp &= ~(0xFU << ((uint32_t)(position & 0x07U) * 4U)) ;
 8000c2c:	ea4f 0c8c 	mov.w	ip, ip, lsl #2
 8000c30:	fa09 fb0c 	lsl.w	fp, r9, ip
 8000c34:	ea26 0b0b 	bic.w	fp, r6, fp
        temp |= ((uint32_t)(GPIO_Init->Alternate) << (((uint32_t)position & 0x07U) * 4U));
 8000c38:	690e      	ldr	r6, [r1, #16]
 8000c3a:	fa06 f60c 	lsl.w	r6, r6, ip
 8000c3e:	ea46 060b 	orr.w	r6, r6, fp
        GPIOx->AFR[position >> 3] = temp;
 8000c42:	623e      	str	r6, [r7, #32]
      temp = GPIOx->MODER;
 8000c44:	f8d0 b000 	ldr.w	fp, [r0]
      temp &= ~(GPIO_MODER_MODER0 << (position * 2U));
 8000c48:	ea4f 0c43 	mov.w	ip, r3, lsl #1
 8000c4c:	2603      	movs	r6, #3
 8000c4e:	fa06 f70c 	lsl.w	r7, r6, ip
 8000c52:	ea2b 0b07 	bic.w	fp, fp, r7
 8000c56:	43fe      	mvns	r6, r7
      temp |= ((GPIO_Init->Mode & GPIO_MODE) << (position * 2U));
 8000c58:	f005 0703 	and.w	r7, r5, #3
 8000c5c:	fa07 f70c 	lsl.w	r7, r7, ip
      if((GPIO_Init->Mode == GPIO_MODE_OUTPUT_PP) || (GPIO_Init->Mode == GPIO_MODE_AF_PP) ||
 8000c60:	f10e 3eff 	add.w	lr, lr, #4294967295	@ 0xffffffff
      temp |= ((GPIO_Init->Mode & GPIO_MODE) << (position * 2U));
 8000c64:	ea47 070b 	orr.w	r7, r7, fp
      if((GPIO_Init->Mode == GPIO_MODE_OUTPUT_PP) || (GPIO_Init->Mode == GPIO_MODE_AF_PP) ||
 8000c68:	f1be 0f01 	cmp.w	lr, #1
      GPIOx->MODER = temp;
 8000c6c:	6007      	str	r7, [r0, #0]
      if((GPIO_Init->Mode == GPIO_MODE_OUTPUT_PP) || (GPIO_Init->Mode == GPIO_MODE_AF_PP) ||
 8000c6e:	d810      	bhi.n	8000c92 <HAL_GPIO_Init+0xaa>
        temp = GPIOx->OSPEEDR;
 8000c70:	6887      	ldr	r7, [r0, #8]
        temp &= ~(GPIO_OSPEEDER_OSPEEDR0 << (position * 2U));
 8000c72:	ea06 0e07 	and.w	lr, r6, r7
        temp |= (GPIO_Init->Speed << (position * 2U));
 8000c76:	68cf      	ldr	r7, [r1, #12]
 8000c78:	fa07 f70c 	lsl.w	r7, r7, ip
 8000c7c:	ea47 070e 	orr.w	r7, r7, lr
        GPIOx->OSPEEDR = temp;
 8000c80:	6087      	str	r7, [r0, #8]
        temp = GPIOx->OTYPER;
 8000c82:	6847      	ldr	r7, [r0, #4]
        temp &= ~(GPIO_OTYPER_OT_0 << position) ;
 8000c84:	ea27 0e0a 	bic.w	lr, r7, sl
        temp |= (((GPIO_Init->Mode & GPIO_OUTPUT_TYPE) >> 4U) << position);
 8000c88:	092f      	lsrs	r7, r5, #4
 8000c8a:	409f      	lsls	r7, r3
 8000c8c:	ea47 070e 	orr.w	r7, r7, lr
        GPIOx->OTYPER = temp;
 8000c90:	6047      	str	r7, [r0, #4]
      temp = GPIOx->PUPDR;
 8000c92:	68c7      	ldr	r7, [r0, #12]
      temp &= ~(GPIO_PUPDR_PUPDR0 << (position * 2U));
 8000c94:	4037      	ands	r7, r6
      temp |= ((GPIO_Init->Pull) << (position * 2U));
 8000c96:	688e      	ldr	r6, [r1, #8]
 8000c98:	fa06 f60c 	lsl.w	r6, r6, ip
 8000c9c:	433e      	orrs	r6, r7
      GPIOx->PUPDR = temp;
 8000c9e:	60c6      	str	r6, [r0, #12]
      if((GPIO_Init->Mode & EXTI_MODE) == EXTI_MODE)
 8000ca0:	00ee      	lsls	r6, r5, #3
 8000ca2:	d54f      	bpl.n	8000d44 <HAL_GPIO_Init+0x15c>
        __HAL_RCC_SYSCFG_CLK_ENABLE();
 8000ca4:	f8d8 6018 	ldr.w	r6, [r8, #24]
 8000ca8:	f046 0601 	orr.w	r6, r6, #1
 8000cac:	f8c8 6018 	str.w	r6, [r8, #24]
 8000cb0:	f8d8 6018 	ldr.w	r6, [r8, #24]
 8000cb4:	f023 0703 	bic.w	r7, r3, #3
 8000cb8:	f107 4780 	add.w	r7, r7, #1073741824	@ 0x40000000
 8000cbc:	f006 0601 	and.w	r6, r6, #1
 8000cc0:	f507 3780 	add.w	r7, r7, #65536	@ 0x10000
 8000cc4:	9601      	str	r6, [sp, #4]
        temp &= ~((0x0FU) << (4U * (position & 0x03U)));
 8000cc6:	f003 0c03 	and.w	ip, r3, #3
        __HAL_RCC_SYSCFG_CLK_ENABLE();
 8000cca:	9e01      	ldr	r6, [sp, #4]
        temp = SYSCFG->EXTICR[position >> 2];
 8000ccc:	68be      	ldr	r6, [r7, #8]
        temp &= ~((0x0FU) << (4U * (position & 0x03U)));
 8000cce:	ea4f 0c8c 	mov.w	ip, ip, lsl #2
 8000cd2:	fa09 fe0c 	lsl.w	lr, r9, ip
        temp |= (GPIO_GET_INDEX(GPIOx) << (4U * (position & 0x03U)));
 8000cd6:	f1b0 4f90 	cmp.w	r0, #1207959552	@ 0x48000000
        temp &= ~((0x0FU) << (4U * (position & 0x03U)));
 8000cda:	ea26 0e0e 	bic.w	lr, r6, lr
        temp |= (GPIO_GET_INDEX(GPIOx) << (4U * (position & 0x03U)));
 8000cde:	d033      	beq.n	8000d48 <HAL_GPIO_Init+0x160>
 8000ce0:	4e1f      	ldr	r6, [pc, #124]	@ (8000d60 <HAL_GPIO_Init+0x178>)
 8000ce2:	42b0      	cmp	r0, r6
 8000ce4:	d032      	beq.n	8000d4c <HAL_GPIO_Init+0x164>
 8000ce6:	f506 6680 	add.w	r6, r6, #1024	@ 0x400
 8000cea:	42b0      	cmp	r0, r6
 8000cec:	d030      	beq.n	8000d50 <HAL_GPIO_Init+0x168>
 8000cee:	f506 6680 	add.w	r6, r6, #1024	@ 0x400
 8000cf2:	42b0      	cmp	r0, r6
 8000cf4:	d02e      	beq.n	8000d54 <HAL_GPIO_Init+0x16c>
 8000cf6:	f506 6680 	add.w	r6, r6, #1024	@ 0x400
 8000cfa:	42b0      	cmp	r0, r6
 8000cfc:	bf14      	ite	ne
 8000cfe:	2605      	movne	r6, #5
 8000d00:	2604      	moveq	r6, #4
 8000d02:	fa06 f60c 	lsl.w	r6, r6, ip
 8000d06:	ea46 060e 	orr.w	r6, r6, lr
        SYSCFG->EXTICR[position >> 2] = temp;
 8000d0a:	60be      	str	r6, [r7, #8]
        temp = EXTI->IMR;
 8000d0c:	6826      	ldr	r6, [r4, #0]
        temp &= ~((uint32_t)iocurrent);
 8000d0e:	43d7      	mvns	r7, r2
        if((GPIO_Init->Mode & GPIO_MODE_IT) == GPIO_MODE_IT)
 8000d10:	f415 3f80 	tst.w	r5, #65536	@ 0x10000
        temp &= ~((uint32_t)iocurrent);
 8000d14:	bf0c      	ite	eq
 8000d16:	403e      	andeq	r6, r7
          temp |= iocurrent;
 8000d18:	4316      	orrne	r6, r2
        EXTI->IMR = temp;
 8000d1a:	6026      	str	r6, [r4, #0]
        temp = EXTI->EMR;
 8000d1c:	6866      	ldr	r6, [r4, #4]
        if((GPIO_Init->Mode & GPIO_MODE_EVT) == GPIO_MODE_EVT)
 8000d1e:	f415 3f00 	tst.w	r5, #131072	@ 0x20000
        temp &= ~((uint32_t)iocurrent);
 8000d22:	bf0c      	ite	eq
 8000d24:	403e      	andeq	r6, r7
          temp |= iocurrent;
 8000d26:	4316      	orrne	r6, r2
        EXTI->EMR = temp;
 8000d28:	6066      	str	r6, [r4, #4]
        temp = EXTI->RTSR;
 8000d2a:	68a6      	ldr	r6, [r4, #8]
        if((GPIO_Init->Mode & RISING_EDGE) == RISING_EDGE)
 8000d2c:	f415 1f80 	tst.w	r5, #1048576	@ 0x100000
        temp &= ~((uint32_t)iocurrent);
 8000d30:	bf0c      	ite	eq
 8000d32:	403e      	andeq	r6, r7
          temp |= iocurrent;
 8000d34:	4316      	orrne	r6, r2
        EXTI->RTSR = temp;
 8000d36:	60a6      	str	r6, [r4, #8]
        temp = EXTI->FTSR;
 8000d38:	68e6      	ldr	r6, [r4, #12]
        if((GPIO_Init->Mode & FALLING_EDGE) == FALLING_EDGE)
 8000d3a:	02ad      	lsls	r5, r5, #10
        temp &= ~((uint32_t)iocurrent);
 8000d3c:	bf54      	ite	pl
 8000d3e:	403e      	andpl	r6, r7
          temp |= iocurrent;
 8000d40:	4316      	orrmi	r6, r2
        EXTI->FTSR = temp;
 8000d42:	60e6      	str	r6, [r4, #12]
    position++;
 8000d44:	3301      	adds	r3, #1
 8000d46:	e757      	b.n	8000bf8 <HAL_GPIO_Init+0x10>
        temp |= (GPIO_GET_INDEX(GPIOx) << (4U * (position & 0x03U)));
 8000d48:	2600      	movs	r6, #0
 8000d4a:	e7da      	b.n	8000d02 <HAL_GPIO_Init+0x11a>
 8000d4c:	2601      	movs	r6, #1
 8000d4e:	e7d8      	b.n	8000d02 <HAL_GPIO_Init+0x11a>
 8000d50:	2602      	movs	r6, #2
 8000d52:	e7d6      	b.n	8000d02 <HAL_GPIO_Init+0x11a>
 8000d54:	2603      	movs	r6, #3
 8000d56:	e7d4      	b.n	8000d02 <HAL_GPIO_Init+0x11a>
 8000d58:	40021000 	.word	0x40021000
 8000d5c:	40010400 	.word	0x40010400
 8000d60:	48000400 	.word	0x48000400

08000d64 <HAL_GPIO_WritePin>:
{
  /* Check the parameters */
  assert_param(IS_GPIO_PIN(GPIO_Pin));
  assert_param(IS_GPIO_PIN_ACTION(PinState));

  if(PinState != GPIO_PIN_RESET)
 8000d64:	b10a      	cbz	r2, 8000d6a <HAL_GPIO_WritePin+0x6>
  {
    GPIOx->BSRR = (uint32_t)GPIO_Pin;
 8000d66:	6181      	str	r1, [r0, #24]
 8000d68:	4770      	bx	lr
  }
  else
  {
    GPIOx->BRR = (uint32_t)GPIO_Pin;
 8000d6a:	6281      	str	r1, [r0, #40]	@ 0x28
  }
}
 8000d6c:	4770      	bx	lr
 8000d6e:	0000      	movs	r0, r0

08000d70 <UART_SetConfig>:
   *  set the M bits according to huart->Init.WordLength value
   *  set PCE and PS bits according to huart->Init.Parity value
   *  set TE and RE bits according to huart->Init.Mode value
   *  set OVER8 bit according to huart->Init.OverSampling value */
  tmpreg = (uint32_t)huart->Init.WordLength | huart->Init.Parity | huart->Init.Mode | huart->Init.OverSampling ;
  MODIFY_REG(huart->Instance->CR1, UART_CR1_FIELDS, tmpreg);
 8000d70:	6802      	ldr	r2, [r0, #0]
  tmpreg = (uint32_t)huart->Init.WordLength | huart->Init.Parity | huart->Init.Mode | huart->Init.OverSampling ;
 8000d72:	6883      	ldr	r3, [r0, #8]
 8000d74:	69c1      	ldr	r1, [r0, #28]
{
 8000d76:	b530      	push	{r4, r5, lr}
  tmpreg = (uint32_t)huart->Init.WordLength | huart->Init.Parity | huart->Init.Mode | huart->Init.OverSampling ;
 8000d78:	6905      	ldr	r5, [r0, #16]
  MODIFY_REG(huart->Instance->CR1, UART_CR1_FIELDS, tmpreg);
 8000d7a:	6814      	ldr	r4, [r2, #0]
  tmpreg = (uint32_t)huart->Init.WordLength | huart->Init.Parity | huart->Init.Mode | huart->Init.OverSampling ;
 8000d7c:	432b      	orrs	r3, r5
 8000d7e:	6945      	ldr	r5, [r0, #20]
  MODIFY_REG(huart->Instance->CR1, UART_CR1_FIELDS, tmpreg);
 8000d80:	f424 4416 	bic.w	r4, r4, #38400	@ 0x9600
  tmpreg = (uint32_t)huart->Init.WordLength | huart->Init.Parity | huart->Init.Mode | huart->Init.OverSampling ;
 8000d84:	432b      	orrs	r3, r5
  MODIFY_REG(huart->Instance->CR1, UART_CR1_FIELDS, tmpreg);
 8000d86:	f024 040c 	bic.w	r4, r4, #12
  tmpreg = (uint32_t)huart->Init.WordLength | huart->Init.Parity | huart->Init.Mode | huart->Init.OverSampling ;
 8000d8a:	430b      	orrs	r3, r1
  MODIFY_REG(huart->Instance->CR1, UART_CR1_FIELDS, tmpreg);
 8000d8c:	4323      	orrs	r3, r4
 8000d8e:	6013      	str	r3, [r2, #0]

  /*-------------------------- USART CR2 Configuration -----------------------*/
  /* Configure the UART Stop Bits: Set STOP[13:12] bits according
   * to huart->Init.StopBits value */
  MODIFY_REG(huart->Instance->CR2, USART_CR2_STOP, huart->Init.StopBits);
 8000d90:	6853      	ldr	r3, [r2, #4]
 8000d92:	68c4      	ldr	r4, [r0, #12]
  /* Configure
   * - UART HardWare Flow Control: set CTSE and RTSE bits according
   *   to huart->Init.HwFlowCtl value
   * - one-bit sampling method versus three samples' majority rule according
   *   to huart->Init.OneBitSampling */
  tmpreg = (uint32_t)huart->Init.HwFlowCtl | huart->Init.OneBitSampling ;
 8000d94:	6a05      	ldr	r5, [r0, #32]
  MODIFY_REG(huart->Instance->CR2, USART_CR2_STOP, huart->Init.StopBits);
 8000d96:	f423 5340 	bic.w	r3, r3, #12288	@ 0x3000
 8000d9a:	4323      	orrs	r3, r4
 8000d9c:	6053      	str	r3, [r2, #4]
  MODIFY_REG(huart->Instance->CR3, (USART_CR3_RTSE | USART_CR3_CTSE | USART_CR3_ONEBIT), tmpreg);
 8000d9e:	6894      	ldr	r4, [r2, #8]
  tmpreg = (uint32_t)huart->Init.HwFlowCtl | huart->Init.OneBitSampling ;
 8000da0:	6983      	ldr	r3, [r0, #24]
  MODIFY_REG(huart->Instance->CR3, (USART_CR3_RTSE | USART_CR3_CTSE | USART_CR3_ONEBIT), tmpreg);
 8000da2:	f424 6430 	bic.w	r4, r4, #2816	@ 0xb00
  tmpreg = (uint32_t)huart->Init.HwFlowCtl | huart->Init.OneBitSampling ;
 8000da6:	432b      	orrs	r3, r5
  MODIFY_REG(huart->Instance->CR3, (USART_CR3_RTSE | USART_CR3_CTSE | USART_CR3_ONEBIT), tmpreg);
 8000da8:	4323      	orrs	r3, r4
 8000daa:	6093      	str	r3, [r2, #8]

  /*-------------------------- USART BRR Configuration -----------------------*/
  UART_GETCLOCKSOURCE(huart, clocksource);
 8000dac:	4b46      	ldr	r3, [pc, #280]	@ (8000ec8 <UART_SetConfig+0x158>)
 8000dae:	429a      	cmp	r2, r3
 8000db0:	d10d      	bne.n	8000dce <UART_SetConfig+0x5e>
 8000db2:	f503 4358 	add.w	r3, r3, #55296	@ 0xd800
 8000db6:	6b1b      	ldr	r3, [r3, #48]	@ 0x30
 8000db8:	f003 0303 	and.w	r3, r3, #3
 8000dbc:	2b02      	cmp	r3, #2
 8000dbe:	d070      	beq.n	8000ea2 <UART_SetConfig+0x132>
 8000dc0:	2b03      	cmp	r3, #3
 8000dc2:	d076      	beq.n	8000eb2 <UART_SetConfig+0x142>

  /* Check UART Over Sampling to set Baud Rate Register */
  if (huart->Init.OverSampling == UART_OVERSAMPLING_8)
 8000dc4:	f5b1 4f00 	cmp.w	r1, #32768	@ 0x8000
 8000dc8:	6841      	ldr	r1, [r0, #4]
 8000dca:	d04e      	beq.n	8000e6a <UART_SetConfig+0xfa>
 8000dcc:	e011      	b.n	8000df2 <UART_SetConfig+0x82>
  UART_GETCLOCKSOURCE(huart, clocksource);
 8000dce:	4b3f      	ldr	r3, [pc, #252]	@ (8000ecc <UART_SetConfig+0x15c>)
 8000dd0:	429a      	cmp	r2, r3
 8000dd2:	d11c      	bne.n	8000e0e <UART_SetConfig+0x9e>
 8000dd4:	f503 33e6 	add.w	r3, r3, #117760	@ 0x1cc00
 8000dd8:	6b1b      	ldr	r3, [r3, #48]	@ 0x30
 8000dda:	f403 3340 	and.w	r3, r3, #196608	@ 0x30000
 8000dde:	f5b3 3f00 	cmp.w	r3, #131072	@ 0x20000
 8000de2:	d05e      	beq.n	8000ea2 <UART_SetConfig+0x132>
 8000de4:	d809      	bhi.n	8000dfa <UART_SetConfig+0x8a>
 8000de6:	2b00      	cmp	r3, #0
 8000de8:	d1ec      	bne.n	8000dc4 <UART_SetConfig+0x54>
  if (huart->Init.OverSampling == UART_OVERSAMPLING_8)
 8000dea:	f5b1 4f00 	cmp.w	r1, #32768	@ 0x8000
 8000dee:	d03b      	beq.n	8000e68 <UART_SetConfig+0xf8>
  else
  {
    switch (clocksource)
    {
      case UART_CLOCKSOURCE_PCLK1:
        huart->Instance->BRR = (uint16_t)(UART_DIV_SAMPLING16(HAL_RCC_GetPCLK1Freq(), huart->Init.BaudRate));
 8000df0:	6841      	ldr	r1, [r0, #4]
        break;
      case UART_CLOCKSOURCE_PCLK2:
        huart->Instance->BRR = (uint16_t)(UART_DIV_SAMPLING16(HAL_RCC_GetPCLK2Freq(), huart->Init.BaudRate));
 8000df2:	084b      	lsrs	r3, r1, #1
 8000df4:	f503 03e1 	add.w	r3, r3, #7372800	@ 0x708000
 8000df8:	e048      	b.n	8000e8c <UART_SetConfig+0x11c>
  UART_GETCLOCKSOURCE(huart, clocksource);
 8000dfa:	f5b3 3f40 	cmp.w	r3, #196608	@ 0x30000
 8000dfe:	d058      	beq.n	8000eb2 <UART_SetConfig+0x142>
  if (huart->Init.OverSampling == UART_OVERSAMPLING_8)
 8000e00:	f5b1 4f00 	cmp.w	r1, #32768	@ 0x8000
        ret = HAL_ERROR;
 8000e04:	f04f 0001 	mov.w	r0, #1
  if (huart->Init.OverSampling == UART_OVERSAMPLING_8)
 8000e08:	d13c      	bne.n	8000e84 <UART_SetConfig+0x114>
  uint16_t usartdiv                   = 0x0000U;
 8000e0a:	2300      	movs	r3, #0
 8000e0c:	e034      	b.n	8000e78 <UART_SetConfig+0x108>
  UART_GETCLOCKSOURCE(huart, clocksource);
 8000e0e:	4b30      	ldr	r3, [pc, #192]	@ (8000ed0 <UART_SetConfig+0x160>)
 8000e10:	429a      	cmp	r2, r3
 8000e12:	d10b      	bne.n	8000e2c <UART_SetConfig+0xbc>
 8000e14:	f503 33e4 	add.w	r3, r3, #116736	@ 0x1c800
 8000e18:	6b1b      	ldr	r3, [r3, #48]	@ 0x30
 8000e1a:	f403 2340 	and.w	r3, r3, #786432	@ 0xc0000
 8000e1e:	f5b3 2f00 	cmp.w	r3, #524288	@ 0x80000
 8000e22:	d03e      	beq.n	8000ea2 <UART_SetConfig+0x132>
 8000e24:	d9df      	bls.n	8000de6 <UART_SetConfig+0x76>
 8000e26:	f5b3 2f40 	cmp.w	r3, #786432	@ 0xc0000
 8000e2a:	e7e8      	b.n	8000dfe <UART_SetConfig+0x8e>
 8000e2c:	4b29      	ldr	r3, [pc, #164]	@ (8000ed4 <UART_SetConfig+0x164>)
 8000e2e:	429a      	cmp	r2, r3
 8000e30:	d10b      	bne.n	8000e4a <UART_SetConfig+0xda>
 8000e32:	f503 33e2 	add.w	r3, r3, #115712	@ 0x1c400
 8000e36:	6b1b      	ldr	r3, [r3, #48]	@ 0x30
 8000e38:	f403 1340 	and.w	r3, r3, #3145728	@ 0x300000
 8000e3c:	f5b3 1f00 	cmp.w	r3, #2097152	@ 0x200000
 8000e40:	d02f      	beq.n	8000ea2 <UART_SetConfig+0x132>
 8000e42:	d9d0      	bls.n	8000de6 <UART_SetConfig+0x76>
 8000e44:	f5b3 1f40 	cmp.w	r3, #3145728	@ 0x300000
 8000e48:	e7d9      	b.n	8000dfe <UART_SetConfig+0x8e>
 8000e4a:	4b23      	ldr	r3, [pc, #140]	@ (8000ed8 <UART_SetConfig+0x168>)
 8000e4c:	429a      	cmp	r2, r3
 8000e4e:	d1d7      	bne.n	8000e00 <UART_SetConfig+0x90>
 8000e50:	f503 33e0 	add.w	r3, r3, #114688	@ 0x1c000
 8000e54:	6b1b      	ldr	r3, [r3, #48]	@ 0x30
 8000e56:	f403 0340 	and.w	r3, r3, #12582912	@ 0xc00000
 8000e5a:	f5b3 0f00 	cmp.w	r3, #8388608	@ 0x800000
 8000e5e:	d020      	beq.n	8000ea2 <UART_SetConfig+0x132>
 8000e60:	d9c1      	bls.n	8000de6 <UART_SetConfig+0x76>
 8000e62:	f5b3 0f40 	cmp.w	r3, #12582912	@ 0xc00000
 8000e66:	e7ca      	b.n	8000dfe <UART_SetConfig+0x8e>
        usartdiv = (uint16_t)(UART_DIV_SAMPLING8(HAL_RCC_GetPCLK1Freq(), huart->Init.BaudRate));
 8000e68:	6841      	ldr	r1, [r0, #4]
 8000e6a:	084b      	lsrs	r3, r1, #1
 8000e6c:	f503 0361 	add.w	r3, r3, #14745600	@ 0xe10000
 8000e70:	fbb3 f3f1 	udiv	r3, r3, r1
  HAL_StatusTypeDef ret               = HAL_OK;
 8000e74:	2000      	movs	r0, #0
        usartdiv = (uint16_t)(UART_DIV_SAMPLING8(HAL_RCC_GetPCLK1Freq(), huart->Init.BaudRate));
 8000e76:	b29b      	uxth	r3, r3
    brrtemp = usartdiv & 0xFFF0U;
 8000e78:	f023 010f 	bic.w	r1, r3, #15
    brrtemp |= (uint16_t)((usartdiv & (uint16_t)0x000FU) >> 1U);
 8000e7c:	f3c3 0342 	ubfx	r3, r3, #1, #3
    huart->Instance->BRR = brrtemp;
 8000e80:	430b      	orrs	r3, r1
 8000e82:	60d3      	str	r3, [r2, #12]
    }
  }

  return ret;

}
 8000e84:	bd30      	pop	{r4, r5, pc}
        huart->Instance->BRR = (uint16_t)(UART_DIV_SAMPLING16(LSE_VALUE, huart->Init.BaudRate));
 8000e86:	084b      	lsrs	r3, r1, #1
 8000e88:	f503 4300 	add.w	r3, r3, #32768	@ 0x8000
        huart->Instance->BRR = (uint16_t)(UART_DIV_SAMPLING16(HAL_RCC_GetPCLK2Freq(), huart->Init.BaudRate));
 8000e8c:	fbb3 f3f1 	udiv	r3, r3, r1
 8000e90:	b29b      	uxth	r3, r3
 8000e92:	60d3      	str	r3, [r2, #12]
  HAL_StatusTypeDef ret               = HAL_OK;
 8000e94:	2000      	movs	r0, #0
  return ret;
 8000e96:	e7f5      	b.n	8000e84 <UART_SetConfig+0x114>
        huart->Instance->BRR = (uint16_t)(UART_DIV_SAMPLING16(HSI_VALUE, huart->Init.BaudRate));
 8000e98:	f503 0374 	add.w	r3, r3, #15990784	@ 0xf40000
 8000e9c:	f503 5310 	add.w	r3, r3, #9216	@ 0x2400
 8000ea0:	e7f4      	b.n	8000e8c <UART_SetConfig+0x11c>
  if (huart->Init.OverSampling == UART_OVERSAMPLING_8)
 8000ea2:	f5b1 4f00 	cmp.w	r1, #32768	@ 0x8000
 8000ea6:	6841      	ldr	r1, [r0, #4]
 8000ea8:	d1ed      	bne.n	8000e86 <UART_SetConfig+0x116>
        usartdiv = (uint16_t)(UART_DIV_SAMPLING8(LSE_VALUE, huart->Init.BaudRate));
 8000eaa:	084b      	lsrs	r3, r1, #1
 8000eac:	f503 3380 	add.w	r3, r3, #65536	@ 0x10000
 8000eb0:	e7de      	b.n	8000e70 <UART_SetConfig+0x100>
  if (huart->Init.OverSampling == UART_OVERSAMPLING_8)
 8000eb2:	f5b1 4f00 	cmp.w	r1, #32768	@ 0x8000
 8000eb6:	6841      	ldr	r1, [r0, #4]
        usartdiv = (uint16_t)(UART_DIV_SAMPLING8(HSI_VALUE, huart->Init.BaudRate));
 8000eb8:	ea4f 0351 	mov.w	r3, r1, lsr #1
  if (huart->Init.OverSampling == UART_OVERSAMPLING_8)
 8000ebc:	d1ec      	bne.n	8000e98 <UART_SetConfig+0x128>
        usartdiv = (uint16_t)(UART_DIV_SAMPLING8(HSI_VALUE, huart->Init.BaudRate));
 8000ebe:	f103 73f4 	add.w	r3, r3, #31981568	@ 0x1e80000
 8000ec2:	f503 4390 	add.w	r3, r3, #18432	@ 0x4800
 8000ec6:	e7d3      	b.n	8000e70 <UART_SetConfig+0x100>
 8000ec8:	40013800 	.word	0x40013800
 8000ecc:	40004400 	.word	0x40004400
 8000ed0:	40004800 	.word	0x40004800
 8000ed4:	40004c00 	.word	0x40004c00
 8000ed8:	40005000 	.word	0x40005000

08000edc <UART_WaitOnFlagUntilTimeout>:
  * @param  Tickstart Tick start value
  * @param  Timeout Timeout duration
  * @retval HAL status
  */
HAL_StatusTypeDef UART_WaitOnFlagUntilTimeout(UART_HandleTypeDef *huart, uint32_t Flag, FlagStatus Status, uint32_t Tickstart, uint32_t Timeout)
{
 8000edc:	e92d 41f0 	stmdb	sp!, {r4, r5, r6, r7, r8, lr}
 8000ee0:	f8dd 8018 	ldr.w	r8, [sp, #24]
 8000ee4:	4604      	mov	r4, r0
 8000ee6:	4616      	mov	r6, r2
 8000ee8:	461f      	mov	r7, r3
  /* Wait until flag is set */
  while((__HAL_UART_GET_FLAG(huart, Flag) ? SET : RESET) == Status)
 8000eea:	6825      	ldr	r5, [r4, #0]
 8000eec:	69eb      	ldr	r3, [r5, #28]
 8000eee:	ea31 0303 	bics.w	r3, r1, r3
 8000ef2:	bf0c      	ite	eq
 8000ef4:	2301      	moveq	r3, #1
 8000ef6:	2300      	movne	r3, #0
 8000ef8:	42b3      	cmp	r3, r6
 8000efa:	d001      	beq.n	8000f00 <UART_WaitOnFlagUntilTimeout+0x24>
        __HAL_UNLOCK(huart);
        return HAL_TIMEOUT;
      }
    }
  }
  return HAL_OK;
 8000efc:	2000      	movs	r0, #0
 8000efe:	e016      	b.n	8000f2e <UART_WaitOnFlagUntilTimeout+0x52>
    if(Timeout != HAL_MAX_DELAY)
 8000f00:	f1b8 3fff 	cmp.w	r8, #4294967295	@ 0xffffffff
 8000f04:	d0f2      	beq.n	8000eec <UART_WaitOnFlagUntilTimeout+0x10>
      if((Timeout == 0U) || ((HAL_GetTick()-Tickstart) > Timeout))
 8000f06:	f1b8 0f00 	cmp.w	r8, #0
 8000f0a:	d112      	bne.n	8000f32 <UART_WaitOnFlagUntilTimeout+0x56>
        CLEAR_BIT(huart->Instance->CR1, (USART_CR1_RXNEIE | USART_CR1_PEIE | USART_CR1_TXEIE));
 8000f0c:	682b      	ldr	r3, [r5, #0]
 8000f0e:	f423 73d0 	bic.w	r3, r3, #416	@ 0x1a0
 8000f12:	602b      	str	r3, [r5, #0]
        CLEAR_BIT(huart->Instance->CR3, USART_CR3_EIE);
 8000f14:	68ab      	ldr	r3, [r5, #8]
 8000f16:	f023 0301 	bic.w	r3, r3, #1
 8000f1a:	60ab      	str	r3, [r5, #8]
        huart->gState  = HAL_UART_STATE_READY;
 8000f1c:	2320      	movs	r3, #32
 8000f1e:	f884 3069 	strb.w	r3, [r4, #105]	@ 0x69
        huart->RxState = HAL_UART_STATE_READY;
 8000f22:	f884 306a 	strb.w	r3, [r4, #106]	@ 0x6a
        __HAL_UNLOCK(huart);
 8000f26:	2300      	movs	r3, #0
 8000f28:	f884 3068 	strb.w	r3, [r4, #104]	@ 0x68
        return HAL_TIMEOUT;
 8000f2c:	2003      	movs	r0, #3
}
 8000f2e:	e8bd 81f0 	ldmia.w	sp!, {r4, r5, r6, r7, r8, pc}
      if((Timeout == 0U) || ((HAL_GetTick()-Tickstart) > Timeout))
 8000f32:	f7ff fb6b 	bl	800060c <HAL_GetTick>
 8000f36:	1bc0      	subs	r0, r0, r7
 8000f38:	4540      	cmp	r0, r8
 8000f3a:	d9d6      	bls.n	8000eea <UART_WaitOnFlagUntilTimeout+0xe>
 8000f3c:	e7e6      	b.n	8000f0c <UART_WaitOnFlagUntilTimeout+0x30>

08000f3e <UART_CheckIdleState>:
{
 8000f3e:	b573      	push	{r0, r1, r4, r5, r6, lr}
 8000f40:	4604      	mov	r4, r0
  huart->ErrorCode = HAL_UART_ERROR_NONE;
 8000f42:	2100      	movs	r1, #0
 8000f44:	66c1      	str	r1, [r0, #108]	@ 0x6c
  tickstart = HAL_GetTick();
 8000f46:	f7ff fb61 	bl	800060c <HAL_GetTick>
  if((huart->Instance->CR1 & USART_CR1_TE) == USART_CR1_TE)
 8000f4a:	6826      	ldr	r6, [r4, #0]
 8000f4c:	6833      	ldr	r3, [r6, #0]
 8000f4e:	071a      	lsls	r2, r3, #28
  tickstart = HAL_GetTick();
 8000f50:	4605      	mov	r5, r0
  if((huart->Instance->CR1 & USART_CR1_TE) == USART_CR1_TE)
 8000f52:	d416      	bmi.n	8000f82 <UART_CheckIdleState+0x44>
  if((huart->Instance->CR1 & USART_CR1_RE) == USART_CR1_RE)
 8000f54:	6833      	ldr	r3, [r6, #0]
 8000f56:	075b      	lsls	r3, r3, #29
 8000f58:	d50a      	bpl.n	8000f70 <UART_CheckIdleState+0x32>
    if(UART_WaitOnFlagUntilTimeout(huart, USART_ISR_REACK, RESET, tickstart, HAL_UART_TIMEOUT_VALUE) != HAL_OK)
 8000f5a:	f06f 437e 	mvn.w	r3, #4261412864	@ 0xfe000000
 8000f5e:	9300      	str	r3, [sp, #0]
 8000f60:	2200      	movs	r2, #0
 8000f62:	462b      	mov	r3, r5
 8000f64:	f44f 0180 	mov.w	r1, #4194304	@ 0x400000
 8000f68:	4620      	mov	r0, r4
 8000f6a:	f7ff ffb7 	bl	8000edc <UART_WaitOnFlagUntilTimeout>
 8000f6e:	b9a0      	cbnz	r0, 8000f9a <UART_CheckIdleState+0x5c>
  huart->gState  = HAL_UART_STATE_READY;
 8000f70:	2320      	movs	r3, #32
  __HAL_UNLOCK(huart);
 8000f72:	2000      	movs	r0, #0
  huart->gState  = HAL_UART_STATE_READY;
 8000f74:	f884 3069 	strb.w	r3, [r4, #105]	@ 0x69
  __HAL_UNLOCK(huart);
 8000f78:	f884 0068 	strb.w	r0, [r4, #104]	@ 0x68
  huart->RxState = HAL_UART_STATE_READY;
 8000f7c:	f884 306a 	strb.w	r3, [r4, #106]	@ 0x6a
  return HAL_OK;
 8000f80:	e00c      	b.n	8000f9c <UART_CheckIdleState+0x5e>
    if(UART_WaitOnFlagUntilTimeout(huart, USART_ISR_TEACK, RESET, tickstart, HAL_UART_TIMEOUT_VALUE) != HAL_OK)
 8000f82:	f06f 437e 	mvn.w	r3, #4261412864	@ 0xfe000000
 8000f86:	9300      	str	r3, [sp, #0]
 8000f88:	460a      	mov	r2, r1
 8000f8a:	4603      	mov	r3, r0
 8000f8c:	f44f 1100 	mov.w	r1, #2097152	@ 0x200000
 8000f90:	4620      	mov	r0, r4
 8000f92:	f7ff ffa3 	bl	8000edc <UART_WaitOnFlagUntilTimeout>
 8000f96:	2800      	cmp	r0, #0
 8000f98:	d0dc      	beq.n	8000f54 <UART_CheckIdleState+0x16>
      return HAL_TIMEOUT;
 8000f9a:	2003      	movs	r0, #3
}
 8000f9c:	b002      	add	sp, #8
 8000f9e:	bd70      	pop	{r4, r5, r6, pc}

08000fa0 <HAL_UART_Init>:
{
 8000fa0:	b538      	push	{r3, r4, r5, lr}
  if(huart == NULL)
 8000fa2:	4604      	mov	r4, r0
 8000fa4:	b320      	cbz	r0, 8000ff0 <HAL_UART_Init+0x50>
  if(huart->gState == HAL_UART_STATE_RESET)
 8000fa6:	f890 3069 	ldrb.w	r3, [r0, #105]	@ 0x69
 8000faa:	f003 02ff 	and.w	r2, r3, #255	@ 0xff
 8000fae:	b90b      	cbnz	r3, 8000fb4 <HAL_UART_Init+0x14>
    huart->Lock = HAL_UNLOCKED;
 8000fb0:	f880 2068 	strb.w	r2, [r0, #104]	@ 0x68
  __HAL_UART_DISABLE(huart);
 8000fb4:	6825      	ldr	r5, [r4, #0]
  huart->gState = HAL_UART_STATE_BUSY;
 8000fb6:	2324      	movs	r3, #36	@ 0x24
 8000fb8:	f884 3069 	strb.w	r3, [r4, #105]	@ 0x69
  __HAL_UART_DISABLE(huart);
 8000fbc:	682b      	ldr	r3, [r5, #0]
 8000fbe:	f023 0301 	bic.w	r3, r3, #1
 8000fc2:	602b      	str	r3, [r5, #0]
  if (UART_SetConfig(huart) == HAL_ERROR)
 8000fc4:	4620      	mov	r0, r4
 8000fc6:	f7ff fed3 	bl	8000d70 <UART_SetConfig>
 8000fca:	2801      	cmp	r0, #1
 8000fcc:	d010      	beq.n	8000ff0 <HAL_UART_Init+0x50>
  CLEAR_BIT(huart->Instance->CR2, (USART_CR2_LINEN | USART_CR2_CLKEN));
 8000fce:	686b      	ldr	r3, [r5, #4]
 8000fd0:	f423 4390 	bic.w	r3, r3, #18432	@ 0x4800
 8000fd4:	606b      	str	r3, [r5, #4]
  CLEAR_BIT(huart->Instance->CR3, (USART_CR3_SCEN | USART_CR3_HDSEL | USART_CR3_IREN));
 8000fd6:	68ab      	ldr	r3, [r5, #8]
 8000fd8:	f023 032a 	bic.w	r3, r3, #42	@ 0x2a
 8000fdc:	60ab      	str	r3, [r5, #8]
  __HAL_UART_ENABLE(huart);
 8000fde:	682b      	ldr	r3, [r5, #0]
 8000fe0:	f043 0301 	orr.w	r3, r3, #1
 8000fe4:	602b      	str	r3, [r5, #0]
  return UART_CheckIdleState(huart);
 8000fe6:	4620      	mov	r0, r4
}
 8000fe8:	e8bd 4038 	ldmia.w	sp!, {r3, r4, r5, lr}
  return UART_CheckIdleState(huart);
 8000fec:	f7ff bfa7 	b.w	8000f3e <UART_CheckIdleState>
}
 8000ff0:	2001      	movs	r0, #1
 8000ff2:	bd38      	pop	{r3, r4, r5, pc}

08000ff4 <HAL_UART_Transmit>:
  * @param Size: Amount of data to be sent.
  * @param Timeout: Timeout duration.
  * @retval HAL status
  */
HAL_StatusTypeDef HAL_UART_Transmit(UART_HandleTypeDef *huart, uint8_t *pData, uint16_t Size, uint32_t Timeout)
{
 8000ff4:	b5f7      	push	{r0, r1, r2, r4, r5, r6, r7, lr}
 8000ff6:	461e      	mov	r6, r3
  uint16_t* tmp;
  uint32_t tickstart = 0U;

  /* Check that a Tx process is not already ongoing */
  if(huart->gState == HAL_UART_STATE_READY)
 8000ff8:	f890 3069 	ldrb.w	r3, [r0, #105]	@ 0x69
 8000ffc:	2b20      	cmp	r3, #32
{
 8000ffe:	460d      	mov	r5, r1
 8001000:	4604      	mov	r4, r0
 8001002:	4611      	mov	r1, r2
  if(huart->gState == HAL_UART_STATE_READY)
 8001004:	d14a      	bne.n	800109c <HAL_UART_Transmit+0xa8>
  {
    if((pData == NULL ) || (Size == 0U))
 8001006:	2d00      	cmp	r5, #0
 8001008:	d046      	beq.n	8001098 <HAL_UART_Transmit+0xa4>
 800100a:	2a00      	cmp	r2, #0
 800100c:	d044      	beq.n	8001098 <HAL_UART_Transmit+0xa4>
    {
      return  HAL_ERROR;
    }

    /* Process Locked */
    __HAL_LOCK(huart);
 800100e:	f890 3068 	ldrb.w	r3, [r0, #104]	@ 0x68
 8001012:	2b01      	cmp	r3, #1
 8001014:	d042      	beq.n	800109c <HAL_UART_Transmit+0xa8>
 8001016:	2301      	movs	r3, #1
 8001018:	f880 3068 	strb.w	r3, [r0, #104]	@ 0x68

    huart->ErrorCode = HAL_UART_ERROR_NONE;
 800101c:	2300      	movs	r3, #0
 800101e:	66c3      	str	r3, [r0, #108]	@ 0x6c
    huart->gState = HAL_UART_STATE_BUSY_TX;
 8001020:	2321      	movs	r3, #33	@ 0x21
 8001022:	f880 3069 	strb.w	r3, [r0, #105]	@ 0x69

    /* Init tickstart for timeout managment*/
    tickstart = HAL_GetTick();
 8001026:	f7ff faf1 	bl	800060c <HAL_GetTick>

    huart->TxXferSize = Size;
 800102a:	f8a4 1050 	strh.w	r1, [r4, #80]	@ 0x50
    tickstart = HAL_GetTick();
 800102e:	4607      	mov	r7, r0
    huart->TxXferCount = Size;
 8001030:	f8a4 1052 	strh.w	r1, [r4, #82]	@ 0x52
    while(huart->TxXferCount > 0U)
 8001034:	f8b4 2052 	ldrh.w	r2, [r4, #82]	@ 0x52
 8001038:	b292      	uxth	r2, r2
 800103a:	b962      	cbnz	r2, 8001056 <HAL_UART_Transmit+0x62>
      else
      {
        huart->Instance->TDR = (*pData++ & (uint8_t)0xFFU);
      }
    }
    if(UART_WaitOnFlagUntilTimeout(huart, UART_FLAG_TC, RESET, tickstart, Timeout) != HAL_OK)
 800103c:	9600      	str	r6, [sp, #0]
 800103e:	463b      	mov	r3, r7
 8001040:	2140      	movs	r1, #64	@ 0x40
 8001042:	4620      	mov	r0, r4
 8001044:	f7ff ff4a 	bl	8000edc <UART_WaitOnFlagUntilTimeout>
 8001048:	b998      	cbnz	r0, 8001072 <HAL_UART_Transmit+0x7e>
    {
      return HAL_TIMEOUT;
    }

    /* At end of Tx process, restore huart->gState to Ready */
    huart->gState = HAL_UART_STATE_READY;
 800104a:	2320      	movs	r3, #32
 800104c:	f884 3069 	strb.w	r3, [r4, #105]	@ 0x69

    /* Process Unlocked */
    __HAL_UNLOCK(huart);
 8001050:	f884 0068 	strb.w	r0, [r4, #104]	@ 0x68

    return HAL_OK;
 8001054:	e00e      	b.n	8001074 <HAL_UART_Transmit+0x80>
      huart->TxXferCount--;
 8001056:	f8b4 2052 	ldrh.w	r2, [r4, #82]	@ 0x52
 800105a:	3a01      	subs	r2, #1
 800105c:	b292      	uxth	r2, r2
 800105e:	f8a4 2052 	strh.w	r2, [r4, #82]	@ 0x52
      if(UART_WaitOnFlagUntilTimeout(huart, UART_FLAG_TXE, RESET, tickstart, Timeout) != HAL_OK)
 8001062:	463b      	mov	r3, r7
 8001064:	9600      	str	r6, [sp, #0]
 8001066:	2200      	movs	r2, #0
 8001068:	2180      	movs	r1, #128	@ 0x80
 800106a:	4620      	mov	r0, r4
 800106c:	f7ff ff36 	bl	8000edc <UART_WaitOnFlagUntilTimeout>
 8001070:	b110      	cbz	r0, 8001078 <HAL_UART_Transmit+0x84>
        return HAL_TIMEOUT;
 8001072:	2003      	movs	r0, #3
  }
  else
  {
    return HAL_BUSY;
  }
}
 8001074:	b003      	add	sp, #12
 8001076:	bdf0      	pop	{r4, r5, r6, r7, pc}
      if ((huart->Init.WordLength == UART_WORDLENGTH_9B) && (huart->Init.Parity == UART_PARITY_NONE))
 8001078:	68a3      	ldr	r3, [r4, #8]
        huart->Instance->TDR = (*tmp & (uint16_t)0x01FFU);
 800107a:	6822      	ldr	r2, [r4, #0]
      if ((huart->Init.WordLength == UART_WORDLENGTH_9B) && (huart->Init.Parity == UART_PARITY_NONE))
 800107c:	f5b3 5f80 	cmp.w	r3, #4096	@ 0x1000
 8001080:	d107      	bne.n	8001092 <HAL_UART_Transmit+0x9e>
 8001082:	6923      	ldr	r3, [r4, #16]
 8001084:	b92b      	cbnz	r3, 8001092 <HAL_UART_Transmit+0x9e>
        huart->Instance->TDR = (*tmp & (uint16_t)0x01FFU);
 8001086:	f835 3b02 	ldrh.w	r3, [r5], #2
 800108a:	f3c3 0308 	ubfx	r3, r3, #0, #9
        huart->Instance->TDR = (*pData++ & (uint8_t)0xFFU);
 800108e:	8513      	strh	r3, [r2, #40]	@ 0x28
 8001090:	e7d0      	b.n	8001034 <HAL_UART_Transmit+0x40>
 8001092:	f815 3b01 	ldrb.w	r3, [r5], #1
 8001096:	e7fa      	b.n	800108e <HAL_UART_Transmit+0x9a>
      return  HAL_ERROR;
 8001098:	2001      	movs	r0, #1
 800109a:	e7eb      	b.n	8001074 <HAL_UART_Transmit+0x80>
    __HAL_LOCK(huart);
 800109c:	2002      	movs	r0, #2
 800109e:	e7e9      	b.n	8001074 <HAL_UART_Transmit+0x80>

080010a0 <HAL_UART_Receive>:
  * @param Size: amount of data to be received.
  * @param Timeout: Timeout duration.
  * @retval HAL status
  */
HAL_StatusTypeDef HAL_UART_Receive(UART_HandleTypeDef *huart, uint8_t *pData, uint16_t Size, uint32_t Timeout)
{
 80010a0:	e92d 41f3 	stmdb	sp!, {r0, r1, r4, r5, r6, r7, r8, lr}
 80010a4:	461e      	mov	r6, r3
  uint16_t* tmp;
  uint16_t uhMask;
  uint32_t tickstart = 0U;

  /* Check that a Rx process is not already ongoing */
  if(huart->RxState == HAL_UART_STATE_READY)
 80010a6:	f890 306a 	ldrb.w	r3, [r0, #106]	@ 0x6a
 80010aa:	2b20      	cmp	r3, #32
{
 80010ac:	460d      	mov	r5, r1
 80010ae:	4604      	mov	r4, r0
 80010b0:	4611      	mov	r1, r2
  if(huart->RxState == HAL_UART_STATE_READY)
 80010b2:	d15c      	bne.n	800116e <HAL_UART_Receive+0xce>
  {
    if((pData == NULL ) || (Size == 0U))
 80010b4:	2d00      	cmp	r5, #0
 80010b6:	d058      	beq.n	800116a <HAL_UART_Receive+0xca>
 80010b8:	2a00      	cmp	r2, #0
 80010ba:	d056      	beq.n	800116a <HAL_UART_Receive+0xca>
    {
      return  HAL_ERROR;
    }

    /* Process Locked */
    __HAL_LOCK(huart);
 80010bc:	f890 3068 	ldrb.w	r3, [r0, #104]	@ 0x68
 80010c0:	2b01      	cmp	r3, #1
 80010c2:	d054      	beq.n	800116e <HAL_UART_Receive+0xce>
 80010c4:	2301      	movs	r3, #1
 80010c6:	f880 3068 	strb.w	r3, [r0, #104]	@ 0x68

    huart->Instance->ICR = 0xFFFFFFFF;
 80010ca:	6803      	ldr	r3, [r0, #0]
 80010cc:	f04f 32ff 	mov.w	r2, #4294967295	@ 0xffffffff
 80010d0:	621a      	str	r2, [r3, #32]
    huart->ErrorCode = HAL_UART_ERROR_NONE;
 80010d2:	2300      	movs	r3, #0
 80010d4:	66c3      	str	r3, [r0, #108]	@ 0x6c
    huart->RxState = HAL_UART_STATE_BUSY_RX;
 80010d6:	2322      	movs	r3, #34	@ 0x22
 80010d8:	f880 306a 	strb.w	r3, [r0, #106]	@ 0x6a

    /* Init tickstart for timeout managment*/
    tickstart = HAL_GetTick();
 80010dc:	f7ff fa96 	bl	800060c <HAL_GetTick>

    huart->RxXferSize = Size;
    huart->RxXferCount = Size;

    /* Computation of UART mask to apply to RDR register */
    UART_MASK_COMPUTATION(huart);
 80010e0:	68a3      	ldr	r3, [r4, #8]
    huart->RxXferSize = Size;
 80010e2:	f8a4 1058 	strh.w	r1, [r4, #88]	@ 0x58
    UART_MASK_COMPUTATION(huart);
 80010e6:	f5b3 5f80 	cmp.w	r3, #4096	@ 0x1000
    tickstart = HAL_GetTick();
 80010ea:	4680      	mov	r8, r0
    huart->RxXferCount = Size;
 80010ec:	f8a4 105a 	strh.w	r1, [r4, #90]	@ 0x5a
    UART_MASK_COMPUTATION(huart);
 80010f0:	d115      	bne.n	800111e <HAL_UART_Receive+0x7e>
 80010f2:	6923      	ldr	r3, [r4, #16]
 80010f4:	b98b      	cbnz	r3, 800111a <HAL_UART_Receive+0x7a>
 80010f6:	f240 13ff 	movw	r3, #511	@ 0x1ff
 80010fa:	f8a4 305c 	strh.w	r3, [r4, #92]	@ 0x5c
    uhMask = huart->Mask;
 80010fe:	f8b4 705c 	ldrh.w	r7, [r4, #92]	@ 0x5c

    /* as long as data have to be received */
    while(huart->RxXferCount > 0U)
 8001102:	f8b4 005a 	ldrh.w	r0, [r4, #90]	@ 0x5a
 8001106:	b280      	uxth	r0, r0
 8001108:	b980      	cbnz	r0, 800112c <HAL_UART_Receive+0x8c>
        *pData++ = (uint8_t)(huart->Instance->RDR & (uint8_t)uhMask);
      }
    }

    /* At end of Rx process, restore huart->RxState to Ready */
    huart->RxState = HAL_UART_STATE_READY;
 800110a:	2320      	movs	r3, #32
 800110c:	f884 306a 	strb.w	r3, [r4, #106]	@ 0x6a

    /* Process Unlocked */
    __HAL_UNLOCK(huart);
 8001110:	f884 0068 	strb.w	r0, [r4, #104]	@ 0x68
  }
  else
  {
    return HAL_BUSY;
  }
}
 8001114:	b002      	add	sp, #8
 8001116:	e8bd 81f0 	ldmia.w	sp!, {r4, r5, r6, r7, r8, pc}
    UART_MASK_COMPUTATION(huart);
 800111a:	23ff      	movs	r3, #255	@ 0xff
 800111c:	e7ed      	b.n	80010fa <HAL_UART_Receive+0x5a>
 800111e:	2b00      	cmp	r3, #0
 8001120:	d1ed      	bne.n	80010fe <HAL_UART_Receive+0x5e>
 8001122:	6923      	ldr	r3, [r4, #16]
 8001124:	2b00      	cmp	r3, #0
 8001126:	d0f8      	beq.n	800111a <HAL_UART_Receive+0x7a>
 8001128:	237f      	movs	r3, #127	@ 0x7f
 800112a:	e7e6      	b.n	80010fa <HAL_UART_Receive+0x5a>
      huart->RxXferCount--;
 800112c:	f8b4 205a 	ldrh.w	r2, [r4, #90]	@ 0x5a
 8001130:	3a01      	subs	r2, #1
 8001132:	b292      	uxth	r2, r2
 8001134:	f8a4 205a 	strh.w	r2, [r4, #90]	@ 0x5a
      if(UART_WaitOnFlagUntilTimeout(huart, UART_FLAG_RXNE, RESET, tickstart, Timeout) != HAL_OK)
 8001138:	4643      	mov	r3, r8
 800113a:	9600      	str	r6, [sp, #0]
 800113c:	2200      	movs	r2, #0
 800113e:	2120      	movs	r1, #32
 8001140:	4620      	mov	r0, r4
 8001142:	f7ff fecb 	bl	8000edc <UART_WaitOnFlagUntilTimeout>
 8001146:	b9a0      	cbnz	r0, 8001172 <HAL_UART_Receive+0xd2>
      if ((huart->Init.WordLength == UART_WORDLENGTH_9B) && (huart->Init.Parity == UART_PARITY_NONE))
 8001148:	68a2      	ldr	r2, [r4, #8]
        *tmp = (uint16_t)(huart->Instance->RDR & uhMask);
 800114a:	6823      	ldr	r3, [r4, #0]
      if ((huart->Init.WordLength == UART_WORDLENGTH_9B) && (huart->Init.Parity == UART_PARITY_NONE))
 800114c:	f5b2 5f80 	cmp.w	r2, #4096	@ 0x1000
 8001150:	d106      	bne.n	8001160 <HAL_UART_Receive+0xc0>
 8001152:	6922      	ldr	r2, [r4, #16]
 8001154:	b922      	cbnz	r2, 8001160 <HAL_UART_Receive+0xc0>
        *tmp = (uint16_t)(huart->Instance->RDR & uhMask);
 8001156:	8c9b      	ldrh	r3, [r3, #36]	@ 0x24
 8001158:	403b      	ands	r3, r7
 800115a:	f825 3b02 	strh.w	r3, [r5], #2
        pData +=2U;
 800115e:	e7d0      	b.n	8001102 <HAL_UART_Receive+0x62>
        *pData++ = (uint8_t)(huart->Instance->RDR & (uint8_t)uhMask);
 8001160:	8c9b      	ldrh	r3, [r3, #36]	@ 0x24
 8001162:	403b      	ands	r3, r7
 8001164:	f805 3b01 	strb.w	r3, [r5], #1
 8001168:	e7cb      	b.n	8001102 <HAL_UART_Receive+0x62>
      return  HAL_ERROR;
 800116a:	2001      	movs	r0, #1
 800116c:	e7d2      	b.n	8001114 <HAL_UART_Receive+0x74>
    __HAL_LOCK(huart);
 800116e:	2002      	movs	r0, #2
 8001170:	e7d0      	b.n	8001114 <HAL_UART_Receive+0x74>
        return HAL_TIMEOUT;
 8001172:	2003      	movs	r0, #3
 8001174:	e7ce      	b.n	8001114 <HAL_UART_Receive+0x74>
 8001176:	0000      	movs	r0, r0

08001178 <Reset_Handler>:
 8001178:	2100      	movs	r1, #0
 800117a:	e003      	b.n	8001184 <LoopCopyDataInit>

0800117c <CopyDataInit>:
 800117c:	4b0b      	ldr	r3, [pc, #44]	@ (80011ac <LoopForever+0x2>)
 800117e:	585b      	ldr	r3, [r3, r1]
 8001180:	5043      	str	r3, [r0, r1]
 8001182:	3104      	adds	r1, #4

08001184 <LoopCopyDataInit>:
 8001184:	480a      	ldr	r0, [pc, #40]	@ (80011b0 <LoopForever+0x6>)
 8001186:	4b0b      	ldr	r3, [pc, #44]	@ (80011b4 <LoopForever+0xa>)
 8001188:	1842      	adds	r2, r0, r1
 800118a:	429a      	cmp	r2, r3
 800118c:	d3f6      	bcc.n	800117c <CopyDataInit>
 800118e:	4a0a      	ldr	r2, [pc, #40]	@ (80011b8 <LoopForever+0xe>)
 8001190:	e002      	b.n	8001198 <LoopFillZerobss>

08001192 <FillZerobss>:
 8001192:	2300      	movs	r3, #0
 8001194:	6013      	str	r3, [r2, #0]
 8001196:	3204      	adds	r2, #4

08001198 <LoopFillZerobss>:
 8001198:	4b08      	ldr	r3, [pc, #32]	@ (80011bc <LoopForever+0x12>)
 800119a:	429a      	cmp	r2, r3
 800119c:	d3f9      	bcc.n	8001192 <FillZerobss>
 800119e:	f3af 8000 	nop.w
 80011a2:	f000 f80f 	bl	80011c4 <__libc_init_array>
 80011a6:	f7ff f81d 	bl	80001e4 <main>

080011aa <LoopForever>:
 80011aa:	e7fe      	b.n	80011aa <LoopForever>
 80011ac:	08001248 	.word	0x08001248
 80011b0:	20000000 	.word	0x20000000
 80011b4:	20000000 	.word	0x20000000
 80011b8:	20000000 	.word	0x20000000
 80011bc:	20000158 	.word	0x20000158

080011c0 <BusFault_Handler>:
 80011c0:	e7fe      	b.n	80011c0 <BusFault_Handler>
 80011c2:	0000      	movs	r0, r0

080011c4 <__libc_init_array>:
 80011c4:	b570      	push	{r4, r5, r6, lr}
 80011c6:	4d0d      	ldr	r5, [pc, #52]	@ (80011fc <__libc_init_array+0x38>)
 80011c8:	4c0d      	ldr	r4, [pc, #52]	@ (8001200 <__libc_init_array+0x3c>)
 80011ca:	1b64      	subs	r4, r4, r5
 80011cc:	10a4      	asrs	r4, r4, #2
 80011ce:	2600      	movs	r6, #0
 80011d0:	42a6      	cmp	r6, r4
 80011d2:	d109      	bne.n	80011e8 <__libc_init_array+0x24>
 80011d4:	4d0b      	ldr	r5, [pc, #44]	@ (8001204 <__libc_init_array+0x40>)
 80011d6:	4c0c      	ldr	r4, [pc, #48]	@ (8001208 <__libc_init_array+0x44>)
 80011d8:	f000 f826 	bl	8001228 <_init>
 80011dc:	1b64      	subs	r4, r4, r5
 80011de:	10a4      	asrs	r4, r4, #2
 80011e0:	2600      	movs	r6, #0
 80011e2:	42a6      	cmp	r6, r4
 80011e4:	d105      	bne.n	80011f2 <__libc_init_array+0x2e>
 80011e6:	bd70      	pop	{r4, r5, r6, pc}
 80011e8:	f855 3b04 	ldr.w	r3, [r5], #4
 80011ec:	4798      	blx	r3
 80011ee:	3601      	adds	r6, #1
 80011f0:	e7ee      	b.n	80011d0 <__libc_init_array+0xc>
 80011f2:	f855 3b04 	ldr.w	r3, [r5], #4
 80011f6:	4798      	blx	r3
 80011f8:	3601      	adds	r6, #1
 80011fa:	e7f2      	b.n	80011e2 <__libc_init_array+0x1e>
 80011fc:	08001240 	.word	0x08001240
 8001200:	08001240 	.word	0x08001240
 8001204:	08001240 	.word	0x08001240
 8001208:	08001244 	.word	0x08001244

0800120c <memcpy>:
 800120c:	440a      	add	r2, r1
 800120e:	4291      	cmp	r1, r2
 8001210:	f100 33ff 	add.w	r3, r0, #4294967295	@ 0xffffffff
 8001214:	d100      	bne.n	8001218 <memcpy+0xc>
 8001216:	4770      	bx	lr
 8001218:	b510      	push	{r4, lr}
 800121a:	f811 4b01 	ldrb.w	r4, [r1], #1
 800121e:	f803 4f01 	strb.w	r4, [r3, #1]!
 8001222:	4291      	cmp	r1, r2
 8001224:	d1f9      	bne.n	800121a <memcpy+0xe>
 8001226:	bd10      	pop	{r4, pc}

08001228 <_init>:
 8001228:	b5f8      	push	{r3, r4, r5, r6, r7, lr}
 800122a:	bf00      	nop
 800122c:	bcf8      	pop	{r3, r4, r5, r6, r7}
 800122e:	bc08      	pop	{r3}
 8001230:	469e      	mov	lr, r3
 8001232:	4770      	bx	lr

08001234 <_fini>:
 8001234:	b5f8      	push	{r3, r4, r5, r6, r7, lr}
 8001236:	bf00      	nop
 8001238:	bcf8      	pop	{r3, r4, r5, r6, r7}
 800123a:	bc08      	pop	{r3}
 800123c:	469e      	mov	lr, r3
 800123e:	4770      	bx	lr
