
generic_simpleserial-CWLITEARM.elf:     file format elf32-littlearm

Sections:
Idx Name          Size      VMA       LMA       File off  Algn
  0 .isr_vector   00000188  08000000  08000000  00001000  2**0
                  CONTENTS, ALLOC, LOAD, READONLY, DATA
  1 .text         000010c4  08000188  08000188  00001188  2**2
                  CONTENTS, ALLOC, LOAD, READONLY, CODE
  2 .rodata       00000000  0800124c  08001254  00002254  2**0
                  CONTENTS, ALLOC, LOAD, DATA
  3 .ARM.extab    00000000  0800124c  0800124c  00002254  2**0
                  CONTENTS
  4 .ARM          00000000  0800124c  0800124c  00002254  2**0
                  CONTENTS
  5 .preinit_array 00000000  0800124c  08001254  00002254  2**0
                  CONTENTS, ALLOC, LOAD, DATA
  6 .init_array   00000004  0800124c  0800124c  0000224c  2**2
                  CONTENTS, ALLOC, LOAD, DATA
  7 .fini_array   00000004  08001250  08001250  00002250  2**2
                  CONTENTS, ALLOC, LOAD, DATA
  8 .data         00000000  20000000  20000000  00002254  2**0
                  CONTENTS, ALLOC, LOAD, DATA
  9 .bss          00000158  20000000  08001254  00003000  2**2
                  ALLOC
 10 ._user_heap_stack 00000400  20000158  08001254  00003158  2**0
                  ALLOC
 11 .ARM.attributes 0000002a  00000000  00000000  00002254  2**0
                  CONTENTS, READONLY
 12 .debug_info   00004158  00000000  00000000  0000227e  2**0
                  CONTENTS, READONLY, DEBUGGING, OCTETS
 13 .debug_abbrev 00000bbd  00000000  00000000  000063d6  2**0
                  CONTENTS, READONLY, DEBUGGING, OCTETS
 14 .debug_loc    00002310  00000000  00000000  00006f93  2**0
                  CONTENTS, READONLY, DEBUGGING, OCTETS
 15 .debug_aranges 000001e0  00000000  00000000  000092a3  2**0
                  CONTENTS, READONLY, DEBUGGING, OCTETS
 16 .debug_ranges 000003d0  00000000  00000000  00009483  2**0
                  CONTENTS, READONLY, DEBUGGING, OCTETS
 17 .debug_line   00002768  00000000  00000000  00009853  2**0
                  CONTENTS, READONLY, DEBUGGING, OCTETS
 18 .debug_str    00001586  00000000  00000000  0000bfbb  2**0
                  CONTENTS, READONLY, DEBUGGING, OCTETS
 19 .comment      0000003c  00000000  00000000  0000d541  2**0
                  CONTENTS, READONLY
 20 .debug_frame  000004d4  00000000  00000000  0000d580  2**2
                  CONTENTS, READONLY, DEBUGGING, OCTETS
 21 .stab         00000144  00000000  00000000  0000da54  2**2
                  CONTENTS, READONLY, DEBUGGING
 22 .stabstr      00000069  00000000  00000000  0000db98  2**0
                  CONTENTS, READONLY, DEBUGGING
 23 .debug_loclists 000000d3  00000000  00000000  0000dc01  2**0
                  CONTENTS, READONLY, DEBUGGING, OCTETS
 24 .debug_rnglists 00000026  00000000  00000000  0000dcd4  2**0
                  CONTENTS, READONLY, DEBUGGING, OCTETS

Disassembly of section .text:

08000188 <__do_global_dtors_aux>:
 8000188:	b510      	push	{r4, lr}
 800018a:	4c05      	ldr	r4, [pc, #20]	@ (80001a0 <__do_global_dtors_aux+0x18>)
 800018c:	7823      	ldrb	r3, [r4, #0]
 800018e:	b933      	cbnz	r3, 800019e <__do_global_dtors_aux+0x16>
 8000190:	4b04      	ldr	r3, [pc, #16]	@ (80001a4 <__do_global_dtors_aux+0x1c>)
 8000192:	b113      	cbz	r3, 800019a <__do_global_dtors_aux+0x12>
 8000194:	4804      	ldr	r0, [pc, #16]	@ (80001a8 <__do_global_dtors_aux+0x20>)
 8000196:	f3af 8000 	nop.w
 800019a:	2301      	movs	r3, #1
 800019c:	7023      	strb	r3, [r4, #0]
 800019e:	bd10      	pop	{r4, pc}
 80001a0:	2000013c 	.word	0x2000013c
 80001a4:	00000000 	.word	0x00000000
 80001a8:	08001234 	.word	0x08001234

080001ac <frame_dummy>:
 80001ac:	b508      	push	{r3, lr}
 80001ae:	4b03      	ldr	r3, [pc, #12]	@ (80001bc <frame_dummy+0x10>)
 80001b0:	b11b      	cbz	r3, 80001ba <frame_dummy+0xe>
 80001b2:	4903      	ldr	r1, [pc, #12]	@ (80001c0 <frame_dummy+0x14>)
 80001b4:	4803      	ldr	r0, [pc, #12]	@ (80001c4 <frame_dummy+0x18>)
 80001b6:	f3af 8000 	nop.w
 80001ba:	bd08      	pop	{r3, pc}
 80001bc:	00000000 	.word	0x00000000
 80001c0:	20000140 	.word	0x20000140
 80001c4:	08001234 	.word	0x08001234

080001c8 <command>:
void setup(uint8_t *input);
void run(uint8_t *input_data);
void teardown(void);

uint8_t command(uint8_t cmd, uint8_t scmd, uint8_t len, uint8_t *input)
{
 80001c8:	b507      	push	{r0, r1, r2, lr}



    trigger_high();
 80001ca:	f000 f9ed 	bl	80005a8 <trigger_high>


    
    // volatile uint8_t i = input[0] ^ input[1];
    volatile uint32_t i = 0;
 80001ce:	2300      	movs	r3, #0
 80001d0:	9301      	str	r3, [sp, #4]
    while (i < 10000) {
 80001d2:	f242 720f 	movw	r2, #9999	@ 0x270f
 80001d6:	9b01      	ldr	r3, [sp, #4]
 80001d8:	4293      	cmp	r3, r2
 80001da:	d905      	bls.n	80001e8 <command+0x20>
        i++;
    }



    trigger_low();
 80001dc:	f000 f9eb 	bl	80005b6 <trigger_low>



    return 0;
}
 80001e0:	2000      	movs	r0, #0
 80001e2:	b003      	add	sp, #12
 80001e4:	f85d fb04 	ldr.w	pc, [sp], #4
        i++;
 80001e8:	9b01      	ldr	r3, [sp, #4]
 80001ea:	3301      	adds	r3, #1
 80001ec:	9301      	str	r3, [sp, #4]
 80001ee:	e7f2      	b.n	80001d6 <command+0xe>

080001f0 <main>:

int main(void)
{
 80001f0:	b508      	push	{r3, lr}
    platform_init();
 80001f2:	f000 f937 	bl	8000464 <platform_init>
    init_uart();
 80001f6:	f000 f975 	bl	80004e4 <init_uart>
    trigger_setup();
 80001fa:	f000 f9b1 	bl	8000560 <trigger_setup>

    simpleserial_init();
 80001fe:	f000 f85b 	bl	80002b8 <simpleserial_init>
    simpleserial_addcmd(0x01, 0, command);
 8000202:	4a04      	ldr	r2, [pc, #16]	@ (8000214 <main+0x24>)
 8000204:	2100      	movs	r1, #0
 8000206:	2001      	movs	r0, #1
 8000208:	f000 f83c 	bl	8000284 <simpleserial_addcmd>
    while (1)
        simpleserial_get();
 800020c:	f000 f8be 	bl	800038c <simpleserial_get>
    while (1)
 8000210:	e7fc      	b.n	800020c <main+0x1c>
 8000212:	bf00      	nop
 8000214:	080001c9 	.word	0x080001c9

08000218 <ss_crc>:


// 0xA6 formerly 
#define CW_CRC 0x4D 
uint8_t ss_crc(uint8_t *buf, uint8_t len)
{
 8000218:	b510      	push	{r4, lr}
 800021a:	4602      	mov	r2, r0
	unsigned int k = 0;
	uint8_t crc = 0x00;
	while (len--) {
 800021c:	4401      	add	r1, r0
	uint8_t crc = 0x00;
 800021e:	2000      	movs	r0, #0
	while (len--) {
 8000220:	428a      	cmp	r2, r1
 8000222:	d100      	bne.n	8000226 <ss_crc+0xe>
			crc = crc & 0x80 ? (crc << 1) ^ CW_CRC: crc << 1;
		}
	}
	return crc;

}
 8000224:	bd10      	pop	{r4, pc}
		crc ^= *buf++;
 8000226:	f812 3b01 	ldrb.w	r3, [r2], #1
 800022a:	2408      	movs	r4, #8
 800022c:	4058      	eors	r0, r3
			crc = crc & 0x80 ? (crc << 1) ^ CW_CRC: crc << 1;
 800022e:	b243      	sxtb	r3, r0
 8000230:	2b00      	cmp	r3, #0
 8000232:	bfba      	itte	lt
 8000234:	005b      	lsllt	r3, r3, #1
 8000236:	f083 034d 	eorlt.w	r3, r3, #77	@ 0x4d
 800023a:	0043      	lslge	r3, r0, #1
		for (k = 0; k < 8; k++) {
 800023c:	3c01      	subs	r4, #1
			crc = crc & 0x80 ? (crc << 1) ^ CW_CRC: crc << 1;
 800023e:	b2d8      	uxtb	r0, r3
		for (k = 0; k < 8; k++) {
 8000240:	d1f5      	bne.n	800022e <ss_crc+0x16>
 8000242:	e7ed      	b.n	8000220 <ss_crc+0x8>

08000244 <stuff_data>:
    return 0x00;

}

uint8_t stuff_data(uint8_t *buf, uint8_t len)
{
 8000244:	b530      	push	{r4, r5, lr}
	uint8_t i = 1;
	uint8_t last = 0;
 8000246:	2200      	movs	r2, #0
 8000248:	4604      	mov	r4, r0
	uint8_t i = 1;
 800024a:	2301      	movs	r3, #1
	for (; i < len; i++) {
 800024c:	428b      	cmp	r3, r1
 800024e:	d301      	bcc.n	8000254 <stuff_data+0x10>
			buf[last] = i - last;
			last = i;
		}
	}
	return 0x00;
}
 8000250:	2000      	movs	r0, #0
 8000252:	bd30      	pop	{r4, r5, pc}
		if (buf[i] == FRAME_BYTE) {
 8000254:	f814 5f01 	ldrb.w	r5, [r4, #1]!
 8000258:	b915      	cbnz	r5, 8000260 <stuff_data+0x1c>
			buf[last] = i - last;
 800025a:	1a9d      	subs	r5, r3, r2
 800025c:	5485      	strb	r5, [r0, r2]
			last = i;
 800025e:	461a      	mov	r2, r3
	for (; i < len; i++) {
 8000260:	3301      	adds	r3, #1
 8000262:	b2db      	uxtb	r3, r3
 8000264:	e7f2      	b.n	800024c <stuff_data+0x8>

08000266 <unstuff_data>:

uint8_t unstuff_data(uint8_t *buf, uint8_t len)
{
 8000266:	b530      	push	{r4, r5, lr}
	uint8_t next = buf[0];
 8000268:	7804      	ldrb	r4, [r0, #0]
	buf[0] = 0x00;
 800026a:	2500      	movs	r5, #0
{
 800026c:	4602      	mov	r2, r0
	buf[0] = 0x00;
 800026e:	7005      	strb	r5, [r0, #0]
	uint8_t next = buf[0];
 8000270:	4620      	mov	r0, r4
	//len -= 1;
	uint8_t tmp = next;
	while ((next < len) && tmp != 0) {
 8000272:	4288      	cmp	r0, r1
 8000274:	d200      	bcs.n	8000278 <unstuff_data+0x12>
 8000276:	b904      	cbnz	r4, 800027a <unstuff_data+0x14>
		tmp = buf[next];
		buf[next] = FRAME_BYTE;
		next += tmp;
	}
	return next;
}
 8000278:	bd30      	pop	{r4, r5, pc}
		tmp = buf[next];
 800027a:	5c14      	ldrb	r4, [r2, r0]
		buf[next] = FRAME_BYTE;
 800027c:	5415      	strb	r5, [r2, r0]
		next += tmp;
 800027e:	1903      	adds	r3, r0, r4
 8000280:	b2d8      	uxtb	r0, r3
 8000282:	e7f6      	b.n	8000272 <unstuff_data+0xc>

08000284 <simpleserial_addcmd>:
	simpleserial_addcmd('v', 0, check_version);
    simpleserial_addcmd('w', 0, ss_get_commands);
}

int simpleserial_addcmd(char c, unsigned int len, uint8_t (*fp)(uint8_t, uint8_t, uint8_t, uint8_t*))
{
 8000284:	b538      	push	{r3, r4, r5, lr}
	if(num_commands >= MAX_SS_CMDS) {
 8000286:	4d0b      	ldr	r5, [pc, #44]	@ (80002b4 <simpleserial_addcmd+0x30>)
 8000288:	682b      	ldr	r3, [r5, #0]
 800028a:	2b0f      	cmp	r3, #15
 800028c:	dd04      	ble.n	8000298 <simpleserial_addcmd+0x14>
		putch('a');
 800028e:	2061      	movs	r0, #97	@ 0x61
		return 1;
	}

	if(len >= MAX_SS_LEN) {
		putch('b');
 8000290:	f000 f9b2 	bl	80005f8 <putch>
		return 1;
 8000294:	2001      	movs	r0, #1
	commands[num_commands].len = len;
	commands[num_commands].fp  = fp;
	num_commands++;

	return 0;
}
 8000296:	bd38      	pop	{r3, r4, r5, pc}
	if(len >= MAX_SS_LEN) {
 8000298:	29ff      	cmp	r1, #255	@ 0xff
 800029a:	d901      	bls.n	80002a0 <simpleserial_addcmd+0x1c>
		putch('b');
 800029c:	2062      	movs	r0, #98	@ 0x62
 800029e:	e7f7      	b.n	8000290 <simpleserial_addcmd+0xc>
	commands[num_commands].c   = c;
 80002a0:	240c      	movs	r4, #12
 80002a2:	fb04 5403 	mla	r4, r4, r3, r5
	num_commands++;
 80002a6:	3301      	adds	r3, #1
	commands[num_commands].c   = c;
 80002a8:	7120      	strb	r0, [r4, #4]
	commands[num_commands].fp  = fp;
 80002aa:	e9c4 1202 	strd	r1, r2, [r4, #8]
	num_commands++;
 80002ae:	602b      	str	r3, [r5, #0]
	return 0;
 80002b0:	2000      	movs	r0, #0
 80002b2:	e7f0      	b.n	8000296 <simpleserial_addcmd+0x12>
 80002b4:	20000000 	.word	0x20000000

080002b8 <simpleserial_init>:
{
 80002b8:	b508      	push	{r3, lr}
	simpleserial_addcmd('v', 0, check_version);
 80002ba:	4a06      	ldr	r2, [pc, #24]	@ (80002d4 <simpleserial_init+0x1c>)
 80002bc:	2100      	movs	r1, #0
 80002be:	2076      	movs	r0, #118	@ 0x76
 80002c0:	f7ff ffe0 	bl	8000284 <simpleserial_addcmd>
}
 80002c4:	e8bd 4008 	ldmia.w	sp!, {r3, lr}
    simpleserial_addcmd('w', 0, ss_get_commands);
 80002c8:	4a03      	ldr	r2, [pc, #12]	@ (80002d8 <simpleserial_init+0x20>)
 80002ca:	2100      	movs	r1, #0
 80002cc:	2077      	movs	r0, #119	@ 0x77
 80002ce:	f7ff bfd9 	b.w	8000284 <simpleserial_addcmd>
 80002d2:	bf00      	nop
 80002d4:	08000333 	.word	0x08000333
 80002d8:	08000351 	.word	0x08000351

080002dc <simpleserial_put>:
	simpleserial_put('e', 0x01, &err);
	return;
}

void simpleserial_put(char c, uint8_t size, uint8_t* output)
{
 80002dc:	b570      	push	{r4, r5, r6, lr}
 80002de:	b0c0      	sub	sp, #256	@ 0x100
 80002e0:	460c      	mov	r4, r1
	uint8_t data_buf[MAX_SS_LEN];
	data_buf[0] = 0x00;
 80002e2:	2500      	movs	r5, #0
{
 80002e4:	4611      	mov	r1, r2
	data_buf[1] = c;
 80002e6:	f88d 0001 	strb.w	r0, [sp, #1]
	data_buf[2] = size;
	int i = 0;
	for (; i < size; i++) {
		data_buf[i + 3] = output[i];
 80002ea:	4622      	mov	r2, r4
 80002ec:	f10d 0003 	add.w	r0, sp, #3
	data_buf[2] = size;
 80002f0:	f88d 4002 	strb.w	r4, [sp, #2]
	data_buf[0] = 0x00;
 80002f4:	f88d 5000 	strb.w	r5, [sp]
		data_buf[i + 3] = output[i];
 80002f8:	f000 ff8e 	bl	8001218 <memcpy>
	}
	data_buf[i + 3] = ss_crc(data_buf+1, size+2);
 80002fc:	1ca1      	adds	r1, r4, #2
 80002fe:	b2c9      	uxtb	r1, r1
 8000300:	f10d 0001 	add.w	r0, sp, #1
 8000304:	f7ff ff88 	bl	8000218 <ss_crc>
 8000308:	eb0d 0304 	add.w	r3, sp, r4
	data_buf[i + 4] = 0x00;
 800030c:	1d26      	adds	r6, r4, #4
	stuff_data(data_buf, i + 5);
 800030e:	1d61      	adds	r1, r4, #5
	data_buf[i + 3] = ss_crc(data_buf+1, size+2);
 8000310:	70d8      	strb	r0, [r3, #3]
	stuff_data(data_buf, i + 5);
 8000312:	b2c9      	uxtb	r1, r1
 8000314:	4668      	mov	r0, sp
	data_buf[i + 4] = 0x00;
 8000316:	f80d 5006 	strb.w	r5, [sp, r6]
	stuff_data(data_buf, i + 5);
 800031a:	f7ff ff93 	bl	8000244 <stuff_data>
	for (int i = 0; i < size + 5; i++) {
 800031e:	466c      	mov	r4, sp
		putch(data_buf[i]);
 8000320:	f814 0b01 	ldrb.w	r0, [r4], #1
	for (int i = 0; i < size + 5; i++) {
 8000324:	3501      	adds	r5, #1
		putch(data_buf[i]);
 8000326:	f000 f967 	bl	80005f8 <putch>
	for (int i = 0; i < size + 5; i++) {
 800032a:	42ae      	cmp	r6, r5
 800032c:	daf8      	bge.n	8000320 <simpleserial_put+0x44>
	}
}
 800032e:	b040      	add	sp, #256	@ 0x100
 8000330:	bd70      	pop	{r4, r5, r6, pc}

08000332 <check_version>:
{
 8000332:	b507      	push	{r0, r1, r2, lr}
	uint8_t ver = SS_VER;
 8000334:	2303      	movs	r3, #3
	simpleserial_put('r', 1, &ver);
 8000336:	f10d 0207 	add.w	r2, sp, #7
 800033a:	2101      	movs	r1, #1
 800033c:	2072      	movs	r0, #114	@ 0x72
	uint8_t ver = SS_VER;
 800033e:	f88d 3007 	strb.w	r3, [sp, #7]
	simpleserial_put('r', 1, &ver);
 8000342:	f7ff ffcb 	bl	80002dc <simpleserial_put>
}
 8000346:	2000      	movs	r0, #0
 8000348:	b003      	add	sp, #12
 800034a:	f85d fb04 	ldr.w	pc, [sp], #4
 800034e:	0000      	movs	r0, r0

08000350 <ss_get_commands>:
{
 8000350:	b530      	push	{r4, r5, lr}
    for (uint8_t i = 0; i < (num_commands & 0xFF); i++) {
 8000352:	480d      	ldr	r0, [pc, #52]	@ (8000388 <ss_get_commands+0x38>)
 8000354:	7801      	ldrb	r1, [r0, #0]
{
 8000356:	b085      	sub	sp, #20
    for (uint8_t i = 0; i < (num_commands & 0xFF); i++) {
 8000358:	2200      	movs	r2, #0
        cmd_chars[i] = commands[i].c;
 800035a:	240c      	movs	r4, #12
    for (uint8_t i = 0; i < (num_commands & 0xFF); i++) {
 800035c:	b2d3      	uxtb	r3, r2
 800035e:	428b      	cmp	r3, r1
 8000360:	f102 0201 	add.w	r2, r2, #1
 8000364:	db06      	blt.n	8000374 <ss_get_commands+0x24>
    simpleserial_put('r', num_commands & 0xFF, (void *)cmd_chars);
 8000366:	466a      	mov	r2, sp
 8000368:	2072      	movs	r0, #114	@ 0x72
 800036a:	f7ff ffb7 	bl	80002dc <simpleserial_put>
}
 800036e:	2000      	movs	r0, #0
 8000370:	b005      	add	sp, #20
 8000372:	bd30      	pop	{r4, r5, pc}
        cmd_chars[i] = commands[i].c;
 8000374:	f103 0510 	add.w	r5, r3, #16
 8000378:	fb04 0303 	mla	r3, r4, r3, r0
 800037c:	446d      	add	r5, sp
 800037e:	791b      	ldrb	r3, [r3, #4]
 8000380:	f805 3c10 	strb.w	r3, [r5, #-16]
    for (uint8_t i = 0; i < (num_commands & 0xFF); i++) {
 8000384:	e7ea      	b.n	800035c <ss_get_commands+0xc>
 8000386:	bf00      	nop
 8000388:	20000000 	.word	0x20000000

0800038c <simpleserial_get>:
{
 800038c:	e92d 47f0 	stmdb	sp!, {r4, r5, r6, r7, r8, r9, sl, lr}
 8000390:	b0c2      	sub	sp, #264	@ 0x108
	uint8_t err = 0;
 8000392:	2500      	movs	r5, #0
 8000394:	ae02      	add	r6, sp, #8
 8000396:	f88d 5007 	strb.w	r5, [sp, #7]
	for (int i = 0; i < 4; i++) {
 800039a:	4634      	mov	r4, r6
		data_buf[i] = getch(); //PTR, cmd, scmd, len
 800039c:	f000 f912 	bl	80005c4 <getch>
 80003a0:	f806 0b01 	strb.w	r0, [r6], #1
		if (data_buf[i] == FRAME_BYTE) {
 80003a4:	b958      	cbnz	r0, 80003be <simpleserial_get+0x32>
			goto ERROR;
 80003a6:	2005      	movs	r0, #5
			err = SS_ERR_FRAME_BYTE;
 80003a8:	f88d 0007 	strb.w	r0, [sp, #7]
	simpleserial_put('e', 0x01, &err);
 80003ac:	f10d 0207 	add.w	r2, sp, #7
 80003b0:	2101      	movs	r1, #1
 80003b2:	2065      	movs	r0, #101	@ 0x65
 80003b4:	f7ff ff92 	bl	80002dc <simpleserial_put>
}
 80003b8:	b042      	add	sp, #264	@ 0x108
 80003ba:	e8bd 87f0 	ldmia.w	sp!, {r4, r5, r6, r7, r8, r9, sl, pc}
	for (int i = 0; i < 4; i++) {
 80003be:	3501      	adds	r5, #1
 80003c0:	2d04      	cmp	r5, #4
 80003c2:	d1eb      	bne.n	800039c <simpleserial_get+0x10>
	uint8_t next_frame = unstuff_data(data_buf, 4);
 80003c4:	4629      	mov	r1, r5
 80003c6:	4620      	mov	r0, r4
 80003c8:	f7ff ff4d 	bl	8000266 <unstuff_data>
	for(c = 0; c < num_commands; c++)
 80003cc:	4f24      	ldr	r7, [pc, #144]	@ (8000460 <simpleserial_get+0xd4>)
		if(commands[c].c == data_buf[1])
 80003ce:	7861      	ldrb	r1, [r4, #1]
	for(c = 0; c < num_commands; c++)
 80003d0:	683a      	ldr	r2, [r7, #0]
	uint8_t next_frame = unstuff_data(data_buf, 4);
 80003d2:	4680      	mov	r8, r0
	for(c = 0; c < num_commands; c++)
 80003d4:	2300      	movs	r3, #0
		if(commands[c].c == data_buf[1])
 80003d6:	200c      	movs	r0, #12
	for(c = 0; c < num_commands; c++)
 80003d8:	fa5f f983 	uxtb.w	r9, r3
 80003dc:	4591      	cmp	r9, r2
 80003de:	db02      	blt.n	80003e6 <simpleserial_get+0x5a>
	if (c == num_commands) {
 80003e0:	d107      	bne.n	80003f2 <simpleserial_get+0x66>
 80003e2:	2001      	movs	r0, #1
 80003e4:	e7e0      	b.n	80003a8 <simpleserial_get+0x1c>
		if(commands[c].c == data_buf[1])
 80003e6:	fb00 7609 	mla	r6, r0, r9, r7
 80003ea:	3301      	adds	r3, #1
 80003ec:	7936      	ldrb	r6, [r6, #4]
 80003ee:	428e      	cmp	r6, r1
 80003f0:	d1f2      	bne.n	80003d8 <simpleserial_get+0x4c>
	if ((data_buf[3] + 5) < next_frame) {
 80003f2:	78e3      	ldrb	r3, [r4, #3]
 80003f4:	3305      	adds	r3, #5
 80003f6:	4543      	cmp	r3, r8
 80003f8:	da02      	bge.n	8000400 <simpleserial_get+0x74>
		goto ERROR;
 80003fa:	2004      	movs	r0, #4
 80003fc:	e7d4      	b.n	80003a8 <simpleserial_get+0x1c>
 80003fe:	4635      	mov	r5, r6
		data_buf[i] = getch();
 8000400:	f000 f8e0 	bl	80005c4 <getch>
 8000404:	5560      	strb	r0, [r4, r5]
		if (data_buf[i] == FRAME_BYTE) {
 8000406:	2800      	cmp	r0, #0
 8000408:	d0cd      	beq.n	80003a6 <simpleserial_get+0x1a>
	for (; i < data_buf[3] + 5; i++) {
 800040a:	78e3      	ldrb	r3, [r4, #3]
 800040c:	1c6e      	adds	r6, r5, #1
 800040e:	3304      	adds	r3, #4
 8000410:	42b3      	cmp	r3, r6
 8000412:	daf4      	bge.n	80003fe <simpleserial_get+0x72>
	data_buf[i] = getch();
 8000414:	f000 f8d6 	bl	80005c4 <getch>
 8000418:	55a0      	strb	r0, [r4, r6]
	if (data_buf[i] != FRAME_BYTE) {
 800041a:	2800      	cmp	r0, #0
 800041c:	d1ed      	bne.n	80003fa <simpleserial_get+0x6e>
	unstuff_data(data_buf + next_frame, i - next_frame + 1);
 800041e:	f1c8 0301 	rsb	r3, r8, #1
 8000422:	fa53 f186 	uxtab	r1, r3, r6
 8000426:	b2c9      	uxtb	r1, r1
 8000428:	fa5f fa86 	uxtb.w	sl, r6
 800042c:	eb04 0008 	add.w	r0, r4, r8
 8000430:	f7ff ff19 	bl	8000266 <unstuff_data>
	uint8_t crc = ss_crc(data_buf+1, i-2);
 8000434:	f1aa 0102 	sub.w	r1, sl, #2
 8000438:	b2c9      	uxtb	r1, r1
 800043a:	f10d 0009 	add.w	r0, sp, #9
 800043e:	f7ff feeb 	bl	8000218 <ss_crc>
	if (crc != data_buf[i-1]) {
 8000442:	5d63      	ldrb	r3, [r4, r5]
 8000444:	4283      	cmp	r3, r0
 8000446:	d109      	bne.n	800045c <simpleserial_get+0xd0>
	err = commands[c].fp(data_buf[1], data_buf[2], data_buf[3], data_buf+4);
 8000448:	230c      	movs	r3, #12
 800044a:	fb03 7709 	mla	r7, r3, r9, r7
 800044e:	78e2      	ldrb	r2, [r4, #3]
 8000450:	68fd      	ldr	r5, [r7, #12]
 8000452:	78a1      	ldrb	r1, [r4, #2]
 8000454:	7860      	ldrb	r0, [r4, #1]
 8000456:	446b      	add	r3, sp
 8000458:	47a8      	blx	r5
 800045a:	e7a5      	b.n	80003a8 <simpleserial_get+0x1c>
 800045c:	2002      	movs	r0, #2
 800045e:	e7a3      	b.n	80003a8 <simpleserial_get+0x1c>
 8000460:	20000000 	.word	0x20000000

08000464 <platform_init>:

UART_HandleTypeDef UartHandle;


void platform_init(void)
{
 8000464:	b570      	push	{r4, r5, r6, lr}
 8000466:	b096      	sub	sp, #88	@ 0x58
     HAL_RCC_ClockConfig(&RCC_ClkInitStruct, flash_latency);
  #else
     RCC_OscInitTypeDef RCC_OscInitStruct;
     RCC_OscInitStruct.OscillatorType = RCC_OSCILLATORTYPE_HSE | RCC_OSCILLATORTYPE_HSI;
     RCC_OscInitStruct.HSEState       = RCC_HSE_BYPASS;
     RCC_OscInitStruct.HSIState       = RCC_HSI_OFF;
 8000468:	2400      	movs	r4, #0
     RCC_OscInitStruct.HSEState       = RCC_HSE_BYPASS;
 800046a:	2603      	movs	r6, #3
 800046c:	f44f 23a0 	mov.w	r3, #327680	@ 0x50000
     RCC_OscInitStruct.PLL.PLLSource  = RCC_PLL_NONE;
     HAL_RCC_OscConfig(&RCC_OscInitStruct);
 8000470:	a80c      	add	r0, sp, #48	@ 0x30

     RCC_ClkInitTypeDef RCC_ClkInitStruct;
     RCC_ClkInitStruct.ClockType      = (RCC_CLOCKTYPE_SYSCLK | RCC_CLOCKTYPE_HCLK | RCC_CLOCKTYPE_PCLK1 | RCC_CLOCKTYPE_PCLK2);
     RCC_ClkInitStruct.SYSCLKSource   = RCC_SYSCLKSOURCE_HSE;
 8000472:	2501      	movs	r5, #1
     RCC_OscInitStruct.HSEState       = RCC_HSE_BYPASS;
 8000474:	e9cd 630c 	strd	r6, r3, [sp, #48]	@ 0x30
     RCC_OscInitStruct.HSIState       = RCC_HSI_OFF;
 8000478:	9410      	str	r4, [sp, #64]	@ 0x40
     RCC_OscInitStruct.PLL.PLLSource  = RCC_PLL_NONE;
 800047a:	9414      	str	r4, [sp, #80]	@ 0x50
     HAL_RCC_OscConfig(&RCC_OscInitStruct);
 800047c:	f000 f8d4 	bl	8000628 <HAL_RCC_OscConfig>
     RCC_ClkInitStruct.SYSCLKSource   = RCC_SYSCLKSOURCE_HSE;
 8000480:	230f      	movs	r3, #15
     RCC_ClkInitStruct.AHBCLKDivider  = RCC_SYSCLK_DIV1;
     RCC_ClkInitStruct.APB1CLKDivider = RCC_HCLK_DIV1;
     RCC_ClkInitStruct.APB2CLKDivider = RCC_HCLK_DIV1;
     uint32_t flash_latency = 0;
     HAL_RCC_ClockConfig(&RCC_ClkInitStruct, flash_latency);
 8000482:	4621      	mov	r1, r4
 8000484:	a802      	add	r0, sp, #8
     RCC_ClkInitStruct.SYSCLKSource   = RCC_SYSCLKSOURCE_HSE;
 8000486:	e9cd 3502 	strd	r3, r5, [sp, #8]
     RCC_ClkInitStruct.APB1CLKDivider = RCC_HCLK_DIV1;
 800048a:	e9cd 4404 	strd	r4, r4, [sp, #16]
     RCC_ClkInitStruct.APB2CLKDivider = RCC_HCLK_DIV1;
 800048e:	9406      	str	r4, [sp, #24]
     HAL_RCC_ClockConfig(&RCC_ClkInitStruct, flash_latency);
 8000490:	f000 fb10 	bl	8000ab4 <HAL_RCC_ClockConfig>




#if (PLATFORM==CWLITEARM)
  __HAL_RCC_GPIOC_CLK_ENABLE();
 8000494:	4b11      	ldr	r3, [pc, #68]	@ (80004dc <platform_init+0x78>)
 8000496:	695a      	ldr	r2, [r3, #20]
 8000498:	f442 2200 	orr.w	r2, r2, #524288	@ 0x80000
 800049c:	615a      	str	r2, [r3, #20]
 800049e:	695b      	ldr	r3, [r3, #20]
  GPIO_InitTypeDef GpioInit;
  GpioInit.Pin       = GPIO_PIN_13 | GPIO_PIN_14;
  GpioInit.Mode      = GPIO_MODE_OUTPUT_PP;
  GpioInit.Pull      = GPIO_NOPULL;
  GpioInit.Speed     = GPIO_SPEED_FREQ_HIGH;
 80004a0:	e9cd 4609 	strd	r4, r6, [sp, #36]	@ 0x24
  __HAL_RCC_GPIOC_CLK_ENABLE();
 80004a4:	f403 2300 	and.w	r3, r3, #524288	@ 0x80000
  HAL_GPIO_Init(GPIOC, &GpioInit);
 80004a8:	4c0d      	ldr	r4, [pc, #52]	@ (80004e0 <platform_init+0x7c>)
  __HAL_RCC_GPIOC_CLK_ENABLE();
 80004aa:	9301      	str	r3, [sp, #4]
 80004ac:	9b01      	ldr	r3, [sp, #4]
  HAL_GPIO_Init(GPIOC, &GpioInit);
 80004ae:	a907      	add	r1, sp, #28
  GpioInit.Pin       = GPIO_PIN_13 | GPIO_PIN_14;
 80004b0:	f44f 43c0 	mov.w	r3, #24576	@ 0x6000
  HAL_GPIO_Init(GPIOC, &GpioInit);
 80004b4:	4620      	mov	r0, r4
  GpioInit.Mode      = GPIO_MODE_OUTPUT_PP;
 80004b6:	e9cd 3507 	strd	r3, r5, [sp, #28]
  HAL_GPIO_Init(GPIOC, &GpioInit);
 80004ba:	f000 fb9b 	bl	8000bf4 <HAL_GPIO_Init>

  HAL_GPIO_WritePin(GPIOC, GPIO_PIN_13, SET);
 80004be:	462a      	mov	r2, r5
 80004c0:	4620      	mov	r0, r4
 80004c2:	f44f 5100 	mov.w	r1, #8192	@ 0x2000
 80004c6:	f000 fc53 	bl	8000d70 <HAL_GPIO_WritePin>
  HAL_GPIO_WritePin(GPIOC, GPIO_PIN_14, SET);
 80004ca:	462a      	mov	r2, r5
 80004cc:	f44f 4180 	mov.w	r1, #16384	@ 0x4000
 80004d0:	4620      	mov	r0, r4
 80004d2:	f000 fc4d 	bl	8000d70 <HAL_GPIO_WritePin>
#endif
}
 80004d6:	b016      	add	sp, #88	@ 0x58
 80004d8:	bd70      	pop	{r4, r5, r6, pc}
 80004da:	bf00      	nop
 80004dc:	40021000 	.word	0x40021000
 80004e0:	48000800 	.word	0x48000800

080004e4 <init_uart>:

void init_uart(void)
{
 80004e4:	b510      	push	{r4, lr}
  GPIO_InitTypeDef GpioInit;
  GpioInit.Pin       = GPIO_PIN_9 | GPIO_PIN_10;
  GpioInit.Mode      = GPIO_MODE_AF_PP;
 80004e6:	f44f 62c0 	mov.w	r2, #1536	@ 0x600
{
 80004ea:	b088      	sub	sp, #32
  GpioInit.Mode      = GPIO_MODE_AF_PP;
 80004ec:	2302      	movs	r3, #2
 80004ee:	e9cd 2303 	strd	r2, r3, [sp, #12]
  GpioInit.Pull      = GPIO_PULLUP;
  GpioInit.Speed     = GPIO_SPEED_FREQ_HIGH;
 80004f2:	2101      	movs	r1, #1
 80004f4:	2303      	movs	r3, #3
 80004f6:	e9cd 1305 	strd	r1, r3, [sp, #20]
  GpioInit.Alternate = GPIO_AF7_USART1;
  __GPIOA_CLK_ENABLE();
 80004fa:	4c16      	ldr	r4, [pc, #88]	@ (8000554 <init_uart+0x70>)
  GpioInit.Alternate = GPIO_AF7_USART1;
 80004fc:	2307      	movs	r3, #7
 80004fe:	9307      	str	r3, [sp, #28]
  __GPIOA_CLK_ENABLE();
 8000500:	6963      	ldr	r3, [r4, #20]
 8000502:	f443 3300 	orr.w	r3, r3, #131072	@ 0x20000
 8000506:	6163      	str	r3, [r4, #20]
 8000508:	6963      	ldr	r3, [r4, #20]
 800050a:	f403 3300 	and.w	r3, r3, #131072	@ 0x20000
 800050e:	9301      	str	r3, [sp, #4]
  HAL_GPIO_Init(GPIOA, &GpioInit);
 8000510:	a903      	add	r1, sp, #12
 8000512:	f04f 4090 	mov.w	r0, #1207959552	@ 0x48000000
  __GPIOA_CLK_ENABLE();
 8000516:	9b01      	ldr	r3, [sp, #4]
  HAL_GPIO_Init(GPIOA, &GpioInit);
 8000518:	f000 fb6c 	bl	8000bf4 <HAL_GPIO_Init>

  UartHandle.Instance        = USART1;
 800051c:	480e      	ldr	r0, [pc, #56]	@ (8000558 <init_uart+0x74>)
  #if SS_VER==SS_VER_2_1
  UartHandle.Init.BaudRate   = 230400;
 800051e:	f8df c03c 	ldr.w	ip, [pc, #60]	@ 800055c <init_uart+0x78>
 8000522:	f44f 3361 	mov.w	r3, #230400	@ 0x38400
 8000526:	e9c0 c300 	strd	ip, r3, [r0]
  #else
  UartHandle.Init.BaudRate   = 38400;
  #endif
  UartHandle.Init.WordLength = UART_WORDLENGTH_8B;
 800052a:	2300      	movs	r3, #0
  UartHandle.Init.StopBits   = UART_STOPBITS_1;
 800052c:	e9c0 3302 	strd	r3, r3, [r0, #8]
  UartHandle.Init.Parity     = UART_PARITY_NONE;
 8000530:	6103      	str	r3, [r0, #16]
  UartHandle.Init.HwFlowCtl  = UART_HWCONTROL_NONE;
 8000532:	6183      	str	r3, [r0, #24]
  UartHandle.Init.Mode       = UART_MODE_TX_RX;
 8000534:	230c      	movs	r3, #12
 8000536:	6143      	str	r3, [r0, #20]
  __USART1_CLK_ENABLE();
 8000538:	69a3      	ldr	r3, [r4, #24]
 800053a:	f443 4380 	orr.w	r3, r3, #16384	@ 0x4000
 800053e:	61a3      	str	r3, [r4, #24]
 8000540:	69a3      	ldr	r3, [r4, #24]
 8000542:	f403 4380 	and.w	r3, r3, #16384	@ 0x4000
 8000546:	9302      	str	r3, [sp, #8]
 8000548:	9b02      	ldr	r3, [sp, #8]
  HAL_UART_Init(&UartHandle);
 800054a:	f000 fd2f 	bl	8000fac <HAL_UART_Init>
}
 800054e:	b008      	add	sp, #32
 8000550:	bd10      	pop	{r4, pc}
 8000552:	bf00      	nop
 8000554:	40021000 	.word	0x40021000
 8000558:	200000c4 	.word	0x200000c4
 800055c:	40013800 	.word	0x40013800

08000560 <trigger_setup>:

void trigger_setup(void)
{
  __HAL_RCC_GPIOA_CLK_ENABLE();
 8000560:	4b10      	ldr	r3, [pc, #64]	@ (80005a4 <trigger_setup+0x44>)
{
 8000562:	b530      	push	{r4, r5, lr}
  __HAL_RCC_GPIOA_CLK_ENABLE();
 8000564:	695a      	ldr	r2, [r3, #20]
 8000566:	f442 3200 	orr.w	r2, r2, #131072	@ 0x20000
 800056a:	615a      	str	r2, [r3, #20]
 800056c:	695b      	ldr	r3, [r3, #20]
{
 800056e:	b087      	sub	sp, #28
  __HAL_RCC_GPIOA_CLK_ENABLE();
 8000570:	f403 3300 	and.w	r3, r3, #131072	@ 0x20000
 8000574:	9300      	str	r3, [sp, #0]
 8000576:	9b00      	ldr	r3, [sp, #0]

  GPIO_InitTypeDef GpioInit;
  GpioInit.Pin       = GPIO_PIN_12;
  GpioInit.Mode      = GPIO_MODE_OUTPUT_PP;
 8000578:	f44f 5480 	mov.w	r4, #4096	@ 0x1000
 800057c:	2301      	movs	r3, #1
 800057e:	e9cd 4301 	strd	r4, r3, [sp, #4]
  GpioInit.Pull      = GPIO_NOPULL;
  GpioInit.Speed     = GPIO_SPEED_FREQ_HIGH;
 8000582:	2500      	movs	r5, #0
 8000584:	2303      	movs	r3, #3
  HAL_GPIO_Init(GPIOA, &GpioInit);
 8000586:	a901      	add	r1, sp, #4
 8000588:	f04f 4090 	mov.w	r0, #1207959552	@ 0x48000000
  GpioInit.Speed     = GPIO_SPEED_FREQ_HIGH;
 800058c:	e9cd 5303 	strd	r5, r3, [sp, #12]
  HAL_GPIO_Init(GPIOA, &GpioInit);
 8000590:	f000 fb30 	bl	8000bf4 <HAL_GPIO_Init>

  HAL_GPIO_WritePin(GPIOA, GPIO_PIN_12, RESET);
 8000594:	462a      	mov	r2, r5
 8000596:	4621      	mov	r1, r4
 8000598:	f04f 4090 	mov.w	r0, #1207959552	@ 0x48000000
 800059c:	f000 fbe8 	bl	8000d70 <HAL_GPIO_WritePin>
}
 80005a0:	b007      	add	sp, #28
 80005a2:	bd30      	pop	{r4, r5, pc}
 80005a4:	40021000 	.word	0x40021000

080005a8 <trigger_high>:

void trigger_high(void)
{
  HAL_GPIO_WritePin(GPIOA, GPIO_PIN_12, SET);
 80005a8:	2201      	movs	r2, #1
 80005aa:	f44f 5180 	mov.w	r1, #4096	@ 0x1000
 80005ae:	f04f 4090 	mov.w	r0, #1207959552	@ 0x48000000
 80005b2:	f000 bbdd 	b.w	8000d70 <HAL_GPIO_WritePin>

080005b6 <trigger_low>:
}

void trigger_low(void)
{
  HAL_GPIO_WritePin(GPIOA, GPIO_PIN_12, RESET);
 80005b6:	2200      	movs	r2, #0
 80005b8:	f44f 5180 	mov.w	r1, #4096	@ 0x1000
 80005bc:	f04f 4090 	mov.w	r0, #1207959552	@ 0x48000000
 80005c0:	f000 bbd6 	b.w	8000d70 <HAL_GPIO_WritePin>

080005c4 <getch>:
}

char getch(void)
{
 80005c4:	b537      	push	{r0, r1, r2, r4, r5, lr}
  uint8_t d;
  while (HAL_UART_Receive(&UartHandle, &d, 1, 5000) != HAL_OK)
 80005c6:	4d0a      	ldr	r5, [pc, #40]	@ (80005f0 <getch+0x2c>)
    USART1->ICR |= (1 << 3);
 80005c8:	4c0a      	ldr	r4, [pc, #40]	@ (80005f4 <getch+0x30>)
  while (HAL_UART_Receive(&UartHandle, &d, 1, 5000) != HAL_OK)
 80005ca:	f241 3388 	movw	r3, #5000	@ 0x1388
 80005ce:	2201      	movs	r2, #1
 80005d0:	f10d 0107 	add.w	r1, sp, #7
 80005d4:	4628      	mov	r0, r5
 80005d6:	f000 fd69 	bl	80010ac <HAL_UART_Receive>
 80005da:	b918      	cbnz	r0, 80005e4 <getch+0x20>
  //putch(d);
  return d;
}
 80005dc:	f89d 0007 	ldrb.w	r0, [sp, #7]
 80005e0:	b003      	add	sp, #12
 80005e2:	bd30      	pop	{r4, r5, pc}
    USART1->ICR |= (1 << 3);
 80005e4:	6a23      	ldr	r3, [r4, #32]
 80005e6:	f043 0308 	orr.w	r3, r3, #8
 80005ea:	6223      	str	r3, [r4, #32]
 80005ec:	e7ed      	b.n	80005ca <getch+0x6>
 80005ee:	bf00      	nop
 80005f0:	200000c4 	.word	0x200000c4
 80005f4:	40013800 	.word	0x40013800

080005f8 <putch>:

void putch(char c)
{
 80005f8:	b507      	push	{r0, r1, r2, lr}
  uint8_t d  = c;
  HAL_UART_Transmit(&UartHandle,  &d, 1, 5000);
 80005fa:	f241 3388 	movw	r3, #5000	@ 0x1388
  uint8_t d  = c;
 80005fe:	f88d 0007 	strb.w	r0, [sp, #7]
  HAL_UART_Transmit(&UartHandle,  &d, 1, 5000);
 8000602:	2201      	movs	r2, #1
 8000604:	f10d 0107 	add.w	r1, sp, #7
 8000608:	4802      	ldr	r0, [pc, #8]	@ (8000614 <putch+0x1c>)
 800060a:	f000 fcf9 	bl	8001000 <HAL_UART_Transmit>
}
 800060e:	b003      	add	sp, #12
 8000610:	f85d fb04 	ldr.w	pc, [sp], #4
 8000614:	200000c4 	.word	0x200000c4

08000618 <HAL_GetTick>:
	hal_sys_tick = 0;
	return HAL_OK;
}
uint32_t HAL_GetTick(void)
{
	return hal_sys_tick++;
 8000618:	4b02      	ldr	r3, [pc, #8]	@ (8000624 <HAL_GetTick+0xc>)
 800061a:	6818      	ldr	r0, [r3, #0]
 800061c:	1c42      	adds	r2, r0, #1
 800061e:	601a      	str	r2, [r3, #0]
}
 8000620:	4770      	bx	lr
 8000622:	bf00      	nop
 8000624:	20000134 	.word	0x20000134

08000628 <HAL_RCC_OscConfig>:
  /* Check the parameters */
  assert_param(RCC_OscInitStruct != NULL);
  assert_param(IS_RCC_OSCILLATORTYPE(RCC_OscInitStruct->OscillatorType));

  /*------------------------------- HSE Configuration ------------------------*/ 
  if(((RCC_OscInitStruct->OscillatorType) & RCC_OSCILLATORTYPE_HSE) == RCC_OSCILLATORTYPE_HSE)
 8000628:	6803      	ldr	r3, [r0, #0]
{
 800062a:	e92d 43f7 	stmdb	sp!, {r0, r1, r2, r4, r5, r6, r7, r8, r9, lr}
  if(((RCC_OscInitStruct->OscillatorType) & RCC_OSCILLATORTYPE_HSE) == RCC_OSCILLATORTYPE_HSE)
 800062e:	07d9      	lsls	r1, r3, #31
{
 8000630:	4604      	mov	r4, r0
  if(((RCC_OscInitStruct->OscillatorType) & RCC_OSCILLATORTYPE_HSE) == RCC_OSCILLATORTYPE_HSE)
 8000632:	d410      	bmi.n	8000656 <HAL_RCC_OscConfig+0x2e>
        }
      }
    }
  }
  /*----------------------------- HSI Configuration --------------------------*/ 
  if(((RCC_OscInitStruct->OscillatorType) & RCC_OSCILLATORTYPE_HSI) == RCC_OSCILLATORTYPE_HSI)
 8000634:	6823      	ldr	r3, [r4, #0]
 8000636:	079a      	lsls	r2, r3, #30
 8000638:	d47e      	bmi.n	8000738 <HAL_RCC_OscConfig+0x110>
        }
      }
    }
  }
  /*------------------------------ LSI Configuration -------------------------*/ 
  if(((RCC_OscInitStruct->OscillatorType) & RCC_OSCILLATORTYPE_LSI) == RCC_OSCILLATORTYPE_LSI)
 800063a:	6823      	ldr	r3, [r4, #0]
 800063c:	071e      	lsls	r6, r3, #28
 800063e:	f100 80e7 	bmi.w	8000810 <HAL_RCC_OscConfig+0x1e8>
        }
      }
    }
  }
  /*------------------------------ LSE Configuration -------------------------*/ 
  if(((RCC_OscInitStruct->OscillatorType) & RCC_OSCILLATORTYPE_LSE) == RCC_OSCILLATORTYPE_LSE)
 8000642:	6823      	ldr	r3, [r4, #0]
 8000644:	075d      	lsls	r5, r3, #29
 8000646:	f100 812a 	bmi.w	800089e <HAL_RCC_OscConfig+0x276>
  }

  /*-------------------------------- PLL Configuration -----------------------*/
  /* Check the parameters */
  assert_param(IS_RCC_PLL(RCC_OscInitStruct->PLL.PLLState));
  if ((RCC_OscInitStruct->PLL.PLLState) != RCC_PLL_NONE)
 800064a:	69e2      	ldr	r2, [r4, #28]
 800064c:	2a00      	cmp	r2, #0
 800064e:	f040 81ad 	bne.w	80009ac <HAL_RCC_OscConfig+0x384>
    {
      return HAL_ERROR;
    }
  }
  
  return HAL_OK;
 8000652:	2000      	movs	r0, #0
 8000654:	e01f      	b.n	8000696 <HAL_RCC_OscConfig+0x6e>
    if((__HAL_RCC_GET_SYSCLK_SOURCE() == RCC_SYSCLKSOURCE_STATUS_HSE) 
 8000656:	49ae      	ldr	r1, [pc, #696]	@ (8000910 <HAL_RCC_OscConfig+0x2e8>)
 8000658:	684b      	ldr	r3, [r1, #4]
 800065a:	f003 030c 	and.w	r3, r3, #12
 800065e:	2b04      	cmp	r3, #4
 8000660:	d007      	beq.n	8000672 <HAL_RCC_OscConfig+0x4a>
       || ((__HAL_RCC_GET_SYSCLK_SOURCE() == RCC_SYSCLKSOURCE_STATUS_PLLCLK) && (__HAL_RCC_GET_PLL_OSCSOURCE() == RCC_PLLSOURCE_HSE)))
 8000662:	684b      	ldr	r3, [r1, #4]
 8000664:	f003 030c 	and.w	r3, r3, #12
 8000668:	2b08      	cmp	r3, #8
 800066a:	d117      	bne.n	800069c <HAL_RCC_OscConfig+0x74>
 800066c:	684b      	ldr	r3, [r1, #4]
 800066e:	03db      	lsls	r3, r3, #15
 8000670:	d514      	bpl.n	800069c <HAL_RCC_OscConfig+0x74>
__attribute__((always_inline)) __STATIC_INLINE uint32_t __RBIT(uint32_t value)
{
  uint32_t result;

#if       (__CORTEX_M >= 0x03U) || (__CORTEX_SC >= 300U)
   __ASM volatile ("rbit %0, %1" : "=r" (result) : "r" (value) );
 8000672:	f44f 3300 	mov.w	r3, #131072	@ 0x20000
 8000676:	fa93 f2a3 	rbit	r2, r3
      if((__HAL_RCC_GET_FLAG(RCC_FLAG_HSERDY) != RESET) && (RCC_OscInitStruct->HSEState == RCC_HSE_OFF))
 800067a:	6809      	ldr	r1, [r1, #0]
 800067c:	fa93 f3a3 	rbit	r3, r3
 8000680:	2201      	movs	r2, #1
 8000682:	fab3 f383 	clz	r3, r3
 8000686:	fa02 f303 	lsl.w	r3, r2, r3
 800068a:	420b      	tst	r3, r1
 800068c:	d0d2      	beq.n	8000634 <HAL_RCC_OscConfig+0xc>
 800068e:	6863      	ldr	r3, [r4, #4]
 8000690:	2b00      	cmp	r3, #0
 8000692:	d1cf      	bne.n	8000634 <HAL_RCC_OscConfig+0xc>
        return HAL_ERROR;
 8000694:	2001      	movs	r0, #1
}
 8000696:	b003      	add	sp, #12
 8000698:	e8bd 83f0 	ldmia.w	sp!, {r4, r5, r6, r7, r8, r9, pc}
      __HAL_RCC_HSE_CONFIG(RCC_OscInitStruct->HSEState);
 800069c:	6862      	ldr	r2, [r4, #4]
 800069e:	f5b2 3f80 	cmp.w	r2, #65536	@ 0x10000
 80006a2:	d122      	bne.n	80006ea <HAL_RCC_OscConfig+0xc2>
 80006a4:	680b      	ldr	r3, [r1, #0]
 80006a6:	f443 3380 	orr.w	r3, r3, #65536	@ 0x10000
 80006aa:	600b      	str	r3, [r1, #0]
      __HAL_RCC_HSE_PREDIV_CONFIG(RCC_OscInitStruct->HSEPredivValue);
 80006ac:	6acb      	ldr	r3, [r1, #44]	@ 0x2c
 80006ae:	68a0      	ldr	r0, [r4, #8]
 80006b0:	f023 030f 	bic.w	r3, r3, #15
 80006b4:	4303      	orrs	r3, r0
 80006b6:	62cb      	str	r3, [r1, #44]	@ 0x2c
      if(RCC_OscInitStruct->HSEState != RCC_HSE_OFF)
 80006b8:	b33a      	cbz	r2, 800070a <HAL_RCC_OscConfig+0xe2>
        tickstart = HAL_GetTick();
 80006ba:	f7ff ffad 	bl	8000618 <HAL_GetTick>
 80006be:	f44f 3600 	mov.w	r6, #131072	@ 0x20000
 80006c2:	4605      	mov	r5, r0
        while(__HAL_RCC_GET_FLAG(RCC_FLAG_HSERDY) == RESET)
 80006c4:	2701      	movs	r7, #1
 80006c6:	fa96 f3a6 	rbit	r3, r6
 80006ca:	680a      	ldr	r2, [r1, #0]
 80006cc:	fa96 f3a6 	rbit	r3, r6
 80006d0:	fab3 f383 	clz	r3, r3
 80006d4:	fa07 f303 	lsl.w	r3, r7, r3
 80006d8:	4213      	tst	r3, r2
 80006da:	d1ab      	bne.n	8000634 <HAL_RCC_OscConfig+0xc>
          if((HAL_GetTick() - tickstart ) > HSE_TIMEOUT_VALUE)
 80006dc:	f7ff ff9c 	bl	8000618 <HAL_GetTick>
 80006e0:	1b40      	subs	r0, r0, r5
 80006e2:	2864      	cmp	r0, #100	@ 0x64
 80006e4:	d9ef      	bls.n	80006c6 <HAL_RCC_OscConfig+0x9e>
            return HAL_TIMEOUT;
 80006e6:	2003      	movs	r0, #3
 80006e8:	e7d5      	b.n	8000696 <HAL_RCC_OscConfig+0x6e>
      __HAL_RCC_HSE_CONFIG(RCC_OscInitStruct->HSEState);
 80006ea:	680b      	ldr	r3, [r1, #0]
 80006ec:	b932      	cbnz	r2, 80006fc <HAL_RCC_OscConfig+0xd4>
 80006ee:	f423 3380 	bic.w	r3, r3, #65536	@ 0x10000
 80006f2:	600b      	str	r3, [r1, #0]
 80006f4:	680b      	ldr	r3, [r1, #0]
 80006f6:	f423 2380 	bic.w	r3, r3, #262144	@ 0x40000
 80006fa:	e7d6      	b.n	80006aa <HAL_RCC_OscConfig+0x82>
 80006fc:	f5b2 2fa0 	cmp.w	r2, #327680	@ 0x50000
 8000700:	d1f5      	bne.n	80006ee <HAL_RCC_OscConfig+0xc6>
 8000702:	f443 2380 	orr.w	r3, r3, #262144	@ 0x40000
 8000706:	600b      	str	r3, [r1, #0]
 8000708:	e7cc      	b.n	80006a4 <HAL_RCC_OscConfig+0x7c>
        tickstart = HAL_GetTick();
 800070a:	f7ff ff85 	bl	8000618 <HAL_GetTick>
 800070e:	f44f 3600 	mov.w	r6, #131072	@ 0x20000
 8000712:	4605      	mov	r5, r0
        while(__HAL_RCC_GET_FLAG(RCC_FLAG_HSERDY) != RESET)
 8000714:	2701      	movs	r7, #1
 8000716:	fa96 f3a6 	rbit	r3, r6
 800071a:	680a      	ldr	r2, [r1, #0]
 800071c:	fa96 f3a6 	rbit	r3, r6
 8000720:	fab3 f383 	clz	r3, r3
 8000724:	fa07 f303 	lsl.w	r3, r7, r3
 8000728:	4213      	tst	r3, r2
 800072a:	d083      	beq.n	8000634 <HAL_RCC_OscConfig+0xc>
           if((HAL_GetTick() - tickstart ) > HSE_TIMEOUT_VALUE)
 800072c:	f7ff ff74 	bl	8000618 <HAL_GetTick>
 8000730:	1b40      	subs	r0, r0, r5
 8000732:	2864      	cmp	r0, #100	@ 0x64
 8000734:	d9ef      	bls.n	8000716 <HAL_RCC_OscConfig+0xee>
 8000736:	e7d6      	b.n	80006e6 <HAL_RCC_OscConfig+0xbe>
    if((__HAL_RCC_GET_SYSCLK_SOURCE() == RCC_SYSCLKSOURCE_STATUS_HSI) 
 8000738:	4975      	ldr	r1, [pc, #468]	@ (8000910 <HAL_RCC_OscConfig+0x2e8>)
 800073a:	684b      	ldr	r3, [r1, #4]
 800073c:	f013 0f0c 	tst.w	r3, #12
 8000740:	d007      	beq.n	8000752 <HAL_RCC_OscConfig+0x12a>
       || ((__HAL_RCC_GET_SYSCLK_SOURCE() == RCC_SYSCLKSOURCE_STATUS_PLLCLK) && (__HAL_RCC_GET_PLL_OSCSOURCE() == RCC_PLLSOURCE_HSI)))
 8000742:	684b      	ldr	r3, [r1, #4]
 8000744:	f003 030c 	and.w	r3, r3, #12
 8000748:	2b08      	cmp	r3, #8
 800074a:	d11f      	bne.n	800078c <HAL_RCC_OscConfig+0x164>
 800074c:	684b      	ldr	r3, [r1, #4]
 800074e:	03df      	lsls	r7, r3, #15
 8000750:	d41c      	bmi.n	800078c <HAL_RCC_OscConfig+0x164>
 8000752:	2302      	movs	r3, #2
 8000754:	fa93 f2a3 	rbit	r2, r3
      if((__HAL_RCC_GET_FLAG(RCC_FLAG_HSIRDY) != RESET) && (RCC_OscInitStruct->HSIState != RCC_HSI_ON))
 8000758:	6808      	ldr	r0, [r1, #0]
 800075a:	fa93 f3a3 	rbit	r3, r3
 800075e:	2201      	movs	r2, #1
 8000760:	fab3 f383 	clz	r3, r3
 8000764:	fa02 f303 	lsl.w	r3, r2, r3
 8000768:	4203      	tst	r3, r0
 800076a:	d002      	beq.n	8000772 <HAL_RCC_OscConfig+0x14a>
 800076c:	6923      	ldr	r3, [r4, #16]
 800076e:	4293      	cmp	r3, r2
 8000770:	d190      	bne.n	8000694 <HAL_RCC_OscConfig+0x6c>
        __HAL_RCC_HSI_CALIBRATIONVALUE_ADJUST(RCC_OscInitStruct->HSICalibrationValue);
 8000772:	6808      	ldr	r0, [r1, #0]
 8000774:	22f8      	movs	r2, #248	@ 0xf8
 8000776:	fa92 f2a2 	rbit	r2, r2
 800077a:	6963      	ldr	r3, [r4, #20]
 800077c:	fab2 f282 	clz	r2, r2
 8000780:	4093      	lsls	r3, r2
 8000782:	f020 02f8 	bic.w	r2, r0, #248	@ 0xf8
 8000786:	4313      	orrs	r3, r2
 8000788:	600b      	str	r3, [r1, #0]
 800078a:	e756      	b.n	800063a <HAL_RCC_OscConfig+0x12>
      if(RCC_OscInitStruct->HSIState != RCC_HSI_OFF)
 800078c:	6922      	ldr	r2, [r4, #16]
 800078e:	2501      	movs	r5, #1
 8000790:	b1f2      	cbz	r2, 80007d0 <HAL_RCC_OscConfig+0x1a8>
 8000792:	fa95 f3a5 	rbit	r3, r5
        __HAL_RCC_HSI_ENABLE();
 8000796:	fab3 f383 	clz	r3, r3
 800079a:	f103 5384 	add.w	r3, r3, #276824064	@ 0x10800000
 800079e:	f503 1384 	add.w	r3, r3, #1081344	@ 0x108000
 80007a2:	009b      	lsls	r3, r3, #2
 80007a4:	2702      	movs	r7, #2
 80007a6:	601d      	str	r5, [r3, #0]
        tickstart = HAL_GetTick();
 80007a8:	f7ff ff36 	bl	8000618 <HAL_GetTick>
 80007ac:	4606      	mov	r6, r0
 80007ae:	fa97 f3a7 	rbit	r3, r7
        while(__HAL_RCC_GET_FLAG(RCC_FLAG_HSIRDY) == RESET)
 80007b2:	680a      	ldr	r2, [r1, #0]
 80007b4:	fa97 f3a7 	rbit	r3, r7
 80007b8:	fab3 f383 	clz	r3, r3
 80007bc:	fa05 f303 	lsl.w	r3, r5, r3
 80007c0:	4213      	tst	r3, r2
 80007c2:	d1d6      	bne.n	8000772 <HAL_RCC_OscConfig+0x14a>
          if((HAL_GetTick() - tickstart ) > HSI_TIMEOUT_VALUE)
 80007c4:	f7ff ff28 	bl	8000618 <HAL_GetTick>
 80007c8:	1b80      	subs	r0, r0, r6
 80007ca:	2802      	cmp	r0, #2
 80007cc:	d9ef      	bls.n	80007ae <HAL_RCC_OscConfig+0x186>
 80007ce:	e78a      	b.n	80006e6 <HAL_RCC_OscConfig+0xbe>
 80007d0:	fa95 f3a5 	rbit	r3, r5
        __HAL_RCC_HSI_DISABLE();
 80007d4:	fab3 f383 	clz	r3, r3
 80007d8:	f103 5384 	add.w	r3, r3, #276824064	@ 0x10800000
 80007dc:	f503 1384 	add.w	r3, r3, #1081344	@ 0x108000
 80007e0:	009b      	lsls	r3, r3, #2
 80007e2:	2702      	movs	r7, #2
 80007e4:	601a      	str	r2, [r3, #0]
        tickstart = HAL_GetTick();
 80007e6:	f7ff ff17 	bl	8000618 <HAL_GetTick>
 80007ea:	4606      	mov	r6, r0
 80007ec:	fa97 f3a7 	rbit	r3, r7
        while(__HAL_RCC_GET_FLAG(RCC_FLAG_HSIRDY) != RESET)
 80007f0:	680a      	ldr	r2, [r1, #0]
 80007f2:	fa97 f3a7 	rbit	r3, r7
 80007f6:	fab3 f383 	clz	r3, r3
 80007fa:	fa05 f303 	lsl.w	r3, r5, r3
 80007fe:	4213      	tst	r3, r2
 8000800:	f43f af1b 	beq.w	800063a <HAL_RCC_OscConfig+0x12>
          if((HAL_GetTick() - tickstart ) > HSI_TIMEOUT_VALUE)
 8000804:	f7ff ff08 	bl	8000618 <HAL_GetTick>
 8000808:	1b80      	subs	r0, r0, r6
 800080a:	2802      	cmp	r0, #2
 800080c:	d9ee      	bls.n	80007ec <HAL_RCC_OscConfig+0x1c4>
 800080e:	e76a      	b.n	80006e6 <HAL_RCC_OscConfig+0xbe>
    if(RCC_OscInitStruct->LSIState != RCC_LSI_OFF)
 8000810:	69a2      	ldr	r2, [r4, #24]
 8000812:	4d3f      	ldr	r5, [pc, #252]	@ (8000910 <HAL_RCC_OscConfig+0x2e8>)
 8000814:	483f      	ldr	r0, [pc, #252]	@ (8000914 <HAL_RCC_OscConfig+0x2ec>)
 8000816:	2101      	movs	r1, #1
 8000818:	b302      	cbz	r2, 800085c <HAL_RCC_OscConfig+0x234>
 800081a:	fa91 f3a1 	rbit	r3, r1
      __HAL_RCC_LSI_ENABLE();
 800081e:	fab3 f383 	clz	r3, r3
 8000822:	4403      	add	r3, r0
 8000824:	009b      	lsls	r3, r3, #2
 8000826:	2602      	movs	r6, #2
 8000828:	6019      	str	r1, [r3, #0]
      tickstart = HAL_GetTick();
 800082a:	f7ff fef5 	bl	8000618 <HAL_GetTick>
 800082e:	4607      	mov	r7, r0
 8000830:	fa96 f3a6 	rbit	r3, r6
 8000834:	fa96 f3a6 	rbit	r3, r6
 8000838:	fa96 f3a6 	rbit	r3, r6
      while(__HAL_RCC_GET_FLAG(RCC_FLAG_LSIRDY) == RESET)
 800083c:	6a6a      	ldr	r2, [r5, #36]	@ 0x24
 800083e:	fa96 f3a6 	rbit	r3, r6
 8000842:	fab3 f383 	clz	r3, r3
 8000846:	fa01 f303 	lsl.w	r3, r1, r3
 800084a:	4213      	tst	r3, r2
 800084c:	f47f aef9 	bne.w	8000642 <HAL_RCC_OscConfig+0x1a>
        if((HAL_GetTick() - tickstart ) > LSI_TIMEOUT_VALUE)
 8000850:	f7ff fee2 	bl	8000618 <HAL_GetTick>
 8000854:	1bc0      	subs	r0, r0, r7
 8000856:	2802      	cmp	r0, #2
 8000858:	d9ea      	bls.n	8000830 <HAL_RCC_OscConfig+0x208>
 800085a:	e744      	b.n	80006e6 <HAL_RCC_OscConfig+0xbe>
 800085c:	fa91 f3a1 	rbit	r3, r1
      __HAL_RCC_LSI_DISABLE();
 8000860:	fab3 f383 	clz	r3, r3
 8000864:	4403      	add	r3, r0
 8000866:	009b      	lsls	r3, r3, #2
 8000868:	2602      	movs	r6, #2
 800086a:	601a      	str	r2, [r3, #0]
      tickstart = HAL_GetTick();
 800086c:	f7ff fed4 	bl	8000618 <HAL_GetTick>
 8000870:	4607      	mov	r7, r0
 8000872:	fa96 f3a6 	rbit	r3, r6
 8000876:	fa96 f3a6 	rbit	r3, r6
 800087a:	fa96 f3a6 	rbit	r3, r6
      while(__HAL_RCC_GET_FLAG(RCC_FLAG_LSIRDY) != RESET)
 800087e:	6a6a      	ldr	r2, [r5, #36]	@ 0x24
 8000880:	fa96 f3a6 	rbit	r3, r6
 8000884:	fab3 f383 	clz	r3, r3
 8000888:	fa01 f303 	lsl.w	r3, r1, r3
 800088c:	4213      	tst	r3, r2
 800088e:	f43f aed8 	beq.w	8000642 <HAL_RCC_OscConfig+0x1a>
        if((HAL_GetTick() - tickstart ) > LSI_TIMEOUT_VALUE)
 8000892:	f7ff fec1 	bl	8000618 <HAL_GetTick>
 8000896:	1bc0      	subs	r0, r0, r7
 8000898:	2802      	cmp	r0, #2
 800089a:	d9ea      	bls.n	8000872 <HAL_RCC_OscConfig+0x24a>
 800089c:	e723      	b.n	80006e6 <HAL_RCC_OscConfig+0xbe>
    if(__HAL_RCC_PWR_IS_CLK_DISABLED())
 800089e:	491c      	ldr	r1, [pc, #112]	@ (8000910 <HAL_RCC_OscConfig+0x2e8>)
 80008a0:	69cb      	ldr	r3, [r1, #28]
 80008a2:	00d8      	lsls	r0, r3, #3
 80008a4:	d431      	bmi.n	800090a <HAL_RCC_OscConfig+0x2e2>
      __HAL_RCC_PWR_CLK_ENABLE();
 80008a6:	69cb      	ldr	r3, [r1, #28]
 80008a8:	f043 5380 	orr.w	r3, r3, #268435456	@ 0x10000000
 80008ac:	61cb      	str	r3, [r1, #28]
 80008ae:	69cb      	ldr	r3, [r1, #28]
 80008b0:	f003 5380 	and.w	r3, r3, #268435456	@ 0x10000000
 80008b4:	9301      	str	r3, [sp, #4]
 80008b6:	9b01      	ldr	r3, [sp, #4]
      pwrclkchanged = SET;
 80008b8:	2501      	movs	r5, #1
    if(HAL_IS_BIT_CLR(PWR->CR, PWR_CR_DBP))
 80008ba:	4e17      	ldr	r6, [pc, #92]	@ (8000918 <HAL_RCC_OscConfig+0x2f0>)
 80008bc:	6833      	ldr	r3, [r6, #0]
 80008be:	05da      	lsls	r2, r3, #23
 80008c0:	d52c      	bpl.n	800091c <HAL_RCC_OscConfig+0x2f4>
    __HAL_RCC_LSE_CONFIG(RCC_OscInitStruct->LSEState);
 80008c2:	68e3      	ldr	r3, [r4, #12]
 80008c4:	2b01      	cmp	r3, #1
 80008c6:	d139      	bne.n	800093c <HAL_RCC_OscConfig+0x314>
 80008c8:	6a0b      	ldr	r3, [r1, #32]
 80008ca:	f043 0301 	orr.w	r3, r3, #1
 80008ce:	620b      	str	r3, [r1, #32]
      tickstart = HAL_GetTick();
 80008d0:	f7ff fea2 	bl	8000618 <HAL_GetTick>
 80008d4:	2602      	movs	r6, #2
 80008d6:	4607      	mov	r7, r0
      while(__HAL_RCC_GET_FLAG(RCC_FLAG_LSERDY) == RESET)
 80008d8:	f04f 0801 	mov.w	r8, #1
        if((HAL_GetTick() - tickstart ) > RCC_LSE_TIMEOUT_VALUE)
 80008dc:	f241 3988 	movw	r9, #5000	@ 0x1388
 80008e0:	fa96 f3a6 	rbit	r3, r6
 80008e4:	fa96 f3a6 	rbit	r3, r6
      while(__HAL_RCC_GET_FLAG(RCC_FLAG_LSERDY) == RESET)
 80008e8:	6a0a      	ldr	r2, [r1, #32]
 80008ea:	fa96 f3a6 	rbit	r3, r6
 80008ee:	fab3 f383 	clz	r3, r3
 80008f2:	fa08 f303 	lsl.w	r3, r8, r3
 80008f6:	4213      	tst	r3, r2
 80008f8:	d052      	beq.n	80009a0 <HAL_RCC_OscConfig+0x378>
    if(pwrclkchanged == SET)
 80008fa:	2d00      	cmp	r5, #0
 80008fc:	f43f aea5 	beq.w	800064a <HAL_RCC_OscConfig+0x22>
      __HAL_RCC_PWR_CLK_DISABLE();
 8000900:	69cb      	ldr	r3, [r1, #28]
 8000902:	f023 5380 	bic.w	r3, r3, #268435456	@ 0x10000000
 8000906:	61cb      	str	r3, [r1, #28]
 8000908:	e69f      	b.n	800064a <HAL_RCC_OscConfig+0x22>
    FlagStatus       pwrclkchanged = RESET;
 800090a:	2500      	movs	r5, #0
 800090c:	e7d5      	b.n	80008ba <HAL_RCC_OscConfig+0x292>
 800090e:	bf00      	nop
 8000910:	40021000 	.word	0x40021000
 8000914:	10908120 	.word	0x10908120
 8000918:	40007000 	.word	0x40007000
      SET_BIT(PWR->CR, PWR_CR_DBP);
 800091c:	6833      	ldr	r3, [r6, #0]
 800091e:	f443 7380 	orr.w	r3, r3, #256	@ 0x100
 8000922:	6033      	str	r3, [r6, #0]
      tickstart = HAL_GetTick();
 8000924:	f7ff fe78 	bl	8000618 <HAL_GetTick>
 8000928:	4607      	mov	r7, r0
      while(HAL_IS_BIT_CLR(PWR->CR, PWR_CR_DBP))
 800092a:	6833      	ldr	r3, [r6, #0]
 800092c:	05db      	lsls	r3, r3, #23
 800092e:	d4c8      	bmi.n	80008c2 <HAL_RCC_OscConfig+0x29a>
        if((HAL_GetTick() - tickstart) > RCC_DBP_TIMEOUT_VALUE)
 8000930:	f7ff fe72 	bl	8000618 <HAL_GetTick>
 8000934:	1bc0      	subs	r0, r0, r7
 8000936:	2864      	cmp	r0, #100	@ 0x64
 8000938:	d9f7      	bls.n	800092a <HAL_RCC_OscConfig+0x302>
 800093a:	e6d4      	b.n	80006e6 <HAL_RCC_OscConfig+0xbe>
    __HAL_RCC_LSE_CONFIG(RCC_OscInitStruct->LSEState);
 800093c:	bb13      	cbnz	r3, 8000984 <HAL_RCC_OscConfig+0x35c>
 800093e:	6a0b      	ldr	r3, [r1, #32]
 8000940:	f023 0301 	bic.w	r3, r3, #1
 8000944:	620b      	str	r3, [r1, #32]
 8000946:	6a0b      	ldr	r3, [r1, #32]
 8000948:	f023 0304 	bic.w	r3, r3, #4
 800094c:	620b      	str	r3, [r1, #32]
      tickstart = HAL_GetTick();
 800094e:	f7ff fe63 	bl	8000618 <HAL_GetTick>
 8000952:	2602      	movs	r6, #2
 8000954:	4607      	mov	r7, r0
      while(__HAL_RCC_GET_FLAG(RCC_FLAG_LSERDY) != RESET)
 8000956:	f04f 0801 	mov.w	r8, #1
        if((HAL_GetTick() - tickstart ) > RCC_LSE_TIMEOUT_VALUE)
 800095a:	f241 3988 	movw	r9, #5000	@ 0x1388
 800095e:	fa96 f3a6 	rbit	r3, r6
 8000962:	fa96 f3a6 	rbit	r3, r6
      while(__HAL_RCC_GET_FLAG(RCC_FLAG_LSERDY) != RESET)
 8000966:	6a0a      	ldr	r2, [r1, #32]
 8000968:	fa96 f3a6 	rbit	r3, r6
 800096c:	fab3 f383 	clz	r3, r3
 8000970:	fa08 f303 	lsl.w	r3, r8, r3
 8000974:	4213      	tst	r3, r2
 8000976:	d0c0      	beq.n	80008fa <HAL_RCC_OscConfig+0x2d2>
        if((HAL_GetTick() - tickstart ) > RCC_LSE_TIMEOUT_VALUE)
 8000978:	f7ff fe4e 	bl	8000618 <HAL_GetTick>
 800097c:	1bc0      	subs	r0, r0, r7
 800097e:	4548      	cmp	r0, r9
 8000980:	d9ed      	bls.n	800095e <HAL_RCC_OscConfig+0x336>
 8000982:	e6b0      	b.n	80006e6 <HAL_RCC_OscConfig+0xbe>
    __HAL_RCC_LSE_CONFIG(RCC_OscInitStruct->LSEState);
 8000984:	2b05      	cmp	r3, #5
 8000986:	6a0b      	ldr	r3, [r1, #32]
 8000988:	d103      	bne.n	8000992 <HAL_RCC_OscConfig+0x36a>
 800098a:	f043 0304 	orr.w	r3, r3, #4
 800098e:	620b      	str	r3, [r1, #32]
 8000990:	e79a      	b.n	80008c8 <HAL_RCC_OscConfig+0x2a0>
 8000992:	f023 0301 	bic.w	r3, r3, #1
 8000996:	620b      	str	r3, [r1, #32]
 8000998:	6a0b      	ldr	r3, [r1, #32]
 800099a:	f023 0304 	bic.w	r3, r3, #4
 800099e:	e796      	b.n	80008ce <HAL_RCC_OscConfig+0x2a6>
        if((HAL_GetTick() - tickstart ) > RCC_LSE_TIMEOUT_VALUE)
 80009a0:	f7ff fe3a 	bl	8000618 <HAL_GetTick>
 80009a4:	1bc0      	subs	r0, r0, r7
 80009a6:	4548      	cmp	r0, r9
 80009a8:	d99a      	bls.n	80008e0 <HAL_RCC_OscConfig+0x2b8>
 80009aa:	e69c      	b.n	80006e6 <HAL_RCC_OscConfig+0xbe>
    if(__HAL_RCC_GET_SYSCLK_SOURCE() != RCC_SYSCLKSOURCE_STATUS_PLLCLK)
 80009ac:	493f      	ldr	r1, [pc, #252]	@ (8000aac <HAL_RCC_OscConfig+0x484>)
 80009ae:	684b      	ldr	r3, [r1, #4]
 80009b0:	f003 030c 	and.w	r3, r3, #12
 80009b4:	2b08      	cmp	r3, #8
 80009b6:	f43f ae6d 	beq.w	8000694 <HAL_RCC_OscConfig+0x6c>
      if((RCC_OscInitStruct->PLL.PLLState) == RCC_PLL_ON)
 80009ba:	2a02      	cmp	r2, #2
 80009bc:	f04f 7380 	mov.w	r3, #16777216	@ 0x1000000
 80009c0:	d150      	bne.n	8000a64 <HAL_RCC_OscConfig+0x43c>
 80009c2:	fa93 f3a3 	rbit	r3, r3
        __HAL_RCC_PLL_DISABLE();
 80009c6:	fab3 f383 	clz	r3, r3
 80009ca:	f103 5384 	add.w	r3, r3, #276824064	@ 0x10800000
 80009ce:	f503 1384 	add.w	r3, r3, #1081344	@ 0x108000
 80009d2:	009b      	lsls	r3, r3, #2
 80009d4:	2200      	movs	r2, #0
 80009d6:	601a      	str	r2, [r3, #0]
        tickstart = HAL_GetTick();
 80009d8:	f7ff fe1e 	bl	8000618 <HAL_GetTick>
          if((HAL_GetTick() - tickstart ) > PLL_TIMEOUT_VALUE)
 80009dc:	f8df 80d0 	ldr.w	r8, [pc, #208]	@ 8000ab0 <HAL_RCC_OscConfig+0x488>
        tickstart = HAL_GetTick();
 80009e0:	4606      	mov	r6, r0
 80009e2:	f04f 7700 	mov.w	r7, #33554432	@ 0x2000000
        while(__HAL_RCC_GET_FLAG(RCC_FLAG_PLLRDY)  != RESET)
 80009e6:	2501      	movs	r5, #1
 80009e8:	fa97 f3a7 	rbit	r3, r7
 80009ec:	680a      	ldr	r2, [r1, #0]
 80009ee:	fa97 f3a7 	rbit	r3, r7
 80009f2:	fab3 f383 	clz	r3, r3
 80009f6:	fa05 f303 	lsl.w	r3, r5, r3
 80009fa:	4213      	tst	r3, r2
 80009fc:	d12c      	bne.n	8000a58 <HAL_RCC_OscConfig+0x430>
      __HAL_RCC_PLL_CONFIG(RCC_OscInitStruct->PLL.PLLSource,
 80009fe:	e9d4 0308 	ldrd	r0, r3, [r4, #32]
 8000a02:	684a      	ldr	r2, [r1, #4]
 8000a04:	4303      	orrs	r3, r0
 8000a06:	f422 1274 	bic.w	r2, r2, #3997696	@ 0x3d0000
 8000a0a:	4313      	orrs	r3, r2
 8000a0c:	604b      	str	r3, [r1, #4]
 8000a0e:	f04f 7380 	mov.w	r3, #16777216	@ 0x1000000
 8000a12:	fa93 f3a3 	rbit	r3, r3
        __HAL_RCC_PLL_ENABLE();
 8000a16:	fab3 f383 	clz	r3, r3
 8000a1a:	f103 5384 	add.w	r3, r3, #276824064	@ 0x10800000
 8000a1e:	f503 1384 	add.w	r3, r3, #1081344	@ 0x108000
 8000a22:	009b      	lsls	r3, r3, #2
          if((HAL_GetTick() - tickstart ) > PLL_TIMEOUT_VALUE)
 8000a24:	4f22      	ldr	r7, [pc, #136]	@ (8000ab0 <HAL_RCC_OscConfig+0x488>)
        __HAL_RCC_PLL_ENABLE();
 8000a26:	601d      	str	r5, [r3, #0]
        tickstart = HAL_GetTick();
 8000a28:	f7ff fdf6 	bl	8000618 <HAL_GetTick>
 8000a2c:	f04f 7500 	mov.w	r5, #33554432	@ 0x2000000
 8000a30:	4604      	mov	r4, r0
        while(__HAL_RCC_GET_FLAG(RCC_FLAG_PLLRDY)  == RESET)
 8000a32:	2601      	movs	r6, #1
 8000a34:	fa95 f3a5 	rbit	r3, r5
 8000a38:	680a      	ldr	r2, [r1, #0]
 8000a3a:	fa95 f3a5 	rbit	r3, r5
 8000a3e:	fab3 f383 	clz	r3, r3
 8000a42:	fa06 f303 	lsl.w	r3, r6, r3
 8000a46:	4213      	tst	r3, r2
 8000a48:	f47f ae03 	bne.w	8000652 <HAL_RCC_OscConfig+0x2a>
          if((HAL_GetTick() - tickstart ) > PLL_TIMEOUT_VALUE)
 8000a4c:	f7ff fde4 	bl	8000618 <HAL_GetTick>
 8000a50:	1b00      	subs	r0, r0, r4
 8000a52:	42b8      	cmp	r0, r7
 8000a54:	d9ee      	bls.n	8000a34 <HAL_RCC_OscConfig+0x40c>
 8000a56:	e646      	b.n	80006e6 <HAL_RCC_OscConfig+0xbe>
          if((HAL_GetTick() - tickstart ) > PLL_TIMEOUT_VALUE)
 8000a58:	f7ff fdde 	bl	8000618 <HAL_GetTick>
 8000a5c:	1b83      	subs	r3, r0, r6
 8000a5e:	4543      	cmp	r3, r8
 8000a60:	d9c2      	bls.n	80009e8 <HAL_RCC_OscConfig+0x3c0>
 8000a62:	e640      	b.n	80006e6 <HAL_RCC_OscConfig+0xbe>
 8000a64:	fa93 f3a3 	rbit	r3, r3
        __HAL_RCC_PLL_DISABLE();
 8000a68:	fab3 f383 	clz	r3, r3
 8000a6c:	f103 5384 	add.w	r3, r3, #276824064	@ 0x10800000
 8000a70:	f503 1384 	add.w	r3, r3, #1081344	@ 0x108000
 8000a74:	009b      	lsls	r3, r3, #2
 8000a76:	2200      	movs	r2, #0
 8000a78:	601a      	str	r2, [r3, #0]
        tickstart = HAL_GetTick();
 8000a7a:	f7ff fdcd 	bl	8000618 <HAL_GetTick>
          if((HAL_GetTick() - tickstart ) > PLL_TIMEOUT_VALUE)
 8000a7e:	4f0c      	ldr	r7, [pc, #48]	@ (8000ab0 <HAL_RCC_OscConfig+0x488>)
        tickstart = HAL_GetTick();
 8000a80:	4604      	mov	r4, r0
 8000a82:	f04f 7500 	mov.w	r5, #33554432	@ 0x2000000
        while(__HAL_RCC_GET_FLAG(RCC_FLAG_PLLRDY)  != RESET)
 8000a86:	2601      	movs	r6, #1
 8000a88:	fa95 f3a5 	rbit	r3, r5
 8000a8c:	680a      	ldr	r2, [r1, #0]
 8000a8e:	fa95 f3a5 	rbit	r3, r5
 8000a92:	fab3 f383 	clz	r3, r3
 8000a96:	fa06 f303 	lsl.w	r3, r6, r3
 8000a9a:	4213      	tst	r3, r2
 8000a9c:	f43f add9 	beq.w	8000652 <HAL_RCC_OscConfig+0x2a>
          if((HAL_GetTick() - tickstart ) > PLL_TIMEOUT_VALUE)
 8000aa0:	f7ff fdba 	bl	8000618 <HAL_GetTick>
 8000aa4:	1b00      	subs	r0, r0, r4
 8000aa6:	42b8      	cmp	r0, r7
 8000aa8:	d9ee      	bls.n	8000a88 <HAL_RCC_OscConfig+0x460>
 8000aaa:	e61c      	b.n	80006e6 <HAL_RCC_OscConfig+0xbe>
 8000aac:	40021000 	.word	0x40021000
 8000ab0:	00030d40 	.word	0x00030d40

08000ab4 <HAL_RCC_ClockConfig>:
  /* To correctly read data from FLASH memory, the number of wait states (LATENCY) 
  must be correctly programmed according to the frequency of the CPU clock 
    (HCLK) of the device. */

  /* Increasing the number of wait states because of higher CPU frequency */
  if(FLatency > (FLASH->ACR & FLASH_ACR_LATENCY))
 8000ab4:	4a4d      	ldr	r2, [pc, #308]	@ (8000bec <HAL_RCC_ClockConfig+0x138>)
{
 8000ab6:	b5f8      	push	{r3, r4, r5, r6, r7, lr}
  if(FLatency > (FLASH->ACR & FLASH_ACR_LATENCY))
 8000ab8:	6813      	ldr	r3, [r2, #0]
 8000aba:	f003 0307 	and.w	r3, r3, #7
 8000abe:	428b      	cmp	r3, r1
{
 8000ac0:	4604      	mov	r4, r0
  if(FLatency > (FLASH->ACR & FLASH_ACR_LATENCY))
 8000ac2:	d311      	bcc.n	8000ae8 <HAL_RCC_ClockConfig+0x34>
      return HAL_ERROR;
    }
  }

  /*-------------------------- HCLK Configuration --------------------------*/
  if(((RCC_ClkInitStruct->ClockType) & RCC_CLOCKTYPE_HCLK) == RCC_CLOCKTYPE_HCLK)
 8000ac4:	6822      	ldr	r2, [r4, #0]
 8000ac6:	0795      	lsls	r5, r2, #30
 8000ac8:	d41a      	bmi.n	8000b00 <HAL_RCC_ClockConfig+0x4c>
    assert_param(IS_RCC_HCLK(RCC_ClkInitStruct->AHBCLKDivider));
    MODIFY_REG(RCC->CFGR, RCC_CFGR_HPRE, RCC_ClkInitStruct->AHBCLKDivider);
  }

  /*------------------------- SYSCLK Configuration ---------------------------*/ 
  if(((RCC_ClkInitStruct->ClockType) & RCC_CLOCKTYPE_SYSCLK) == RCC_CLOCKTYPE_SYSCLK)
 8000aca:	07d0      	lsls	r0, r2, #31
 8000acc:	d420      	bmi.n	8000b10 <HAL_RCC_ClockConfig+0x5c>
        }
      }
    }      
  }    
  /* Decreasing the number of wait states because of lower CPU frequency */
  if(FLatency < (FLASH->ACR & FLASH_ACR_LATENCY))
 8000ace:	4a47      	ldr	r2, [pc, #284]	@ (8000bec <HAL_RCC_ClockConfig+0x138>)
 8000ad0:	6813      	ldr	r3, [r2, #0]
 8000ad2:	f003 0307 	and.w	r3, r3, #7
 8000ad6:	428b      	cmp	r3, r1
 8000ad8:	d86c      	bhi.n	8000bb4 <HAL_RCC_ClockConfig+0x100>
      return HAL_ERROR;
    }
  }    

  /*-------------------------- PCLK1 Configuration ---------------------------*/ 
  if(((RCC_ClkInitStruct->ClockType) & RCC_CLOCKTYPE_PCLK1) == RCC_CLOCKTYPE_PCLK1)
 8000ada:	6822      	ldr	r2, [r4, #0]
 8000adc:	0751      	lsls	r1, r2, #29
 8000ade:	d474      	bmi.n	8000bca <HAL_RCC_ClockConfig+0x116>
    assert_param(IS_RCC_PCLK(RCC_ClkInitStruct->APB1CLKDivider));
    MODIFY_REG(RCC->CFGR, RCC_CFGR_PPRE1, RCC_ClkInitStruct->APB1CLKDivider);
  }
  
  /*-------------------------- PCLK2 Configuration ---------------------------*/ 
  if(((RCC_ClkInitStruct->ClockType) & RCC_CLOCKTYPE_PCLK2) == RCC_CLOCKTYPE_PCLK2)
 8000ae0:	0713      	lsls	r3, r2, #28
 8000ae2:	d47a      	bmi.n	8000bda <HAL_RCC_ClockConfig+0x126>
  //SystemCoreClock = HAL_RCC_GetSysClockFreq() >> AHBPrescTable[(RCC->CFGR & RCC_CFGR_HPRE)>> RCC_CFGR_HPRE_BITNUMBER];

  /* Configure the source of time base considering new system clocks settings*/
  //HAL_InitTick (TICK_INT_PRIORITY);
  
  return HAL_OK;
 8000ae4:	2000      	movs	r0, #0
 8000ae6:	e00a      	b.n	8000afe <HAL_RCC_ClockConfig+0x4a>
    __HAL_FLASH_SET_LATENCY(FLatency);
 8000ae8:	6813      	ldr	r3, [r2, #0]
 8000aea:	f023 0307 	bic.w	r3, r3, #7
 8000aee:	430b      	orrs	r3, r1
 8000af0:	6013      	str	r3, [r2, #0]
    if((FLASH->ACR & FLASH_ACR_LATENCY) != FLatency)
 8000af2:	6813      	ldr	r3, [r2, #0]
 8000af4:	f003 0307 	and.w	r3, r3, #7
 8000af8:	428b      	cmp	r3, r1
 8000afa:	d0e3      	beq.n	8000ac4 <HAL_RCC_ClockConfig+0x10>
      return HAL_ERROR;
 8000afc:	2001      	movs	r0, #1
}
 8000afe:	bdf8      	pop	{r3, r4, r5, r6, r7, pc}
    MODIFY_REG(RCC->CFGR, RCC_CFGR_HPRE, RCC_ClkInitStruct->AHBCLKDivider);
 8000b00:	483b      	ldr	r0, [pc, #236]	@ (8000bf0 <HAL_RCC_ClockConfig+0x13c>)
 8000b02:	68a5      	ldr	r5, [r4, #8]
 8000b04:	6843      	ldr	r3, [r0, #4]
 8000b06:	f023 03f0 	bic.w	r3, r3, #240	@ 0xf0
 8000b0a:	432b      	orrs	r3, r5
 8000b0c:	6043      	str	r3, [r0, #4]
 8000b0e:	e7dc      	b.n	8000aca <HAL_RCC_ClockConfig+0x16>
    if(RCC_ClkInitStruct->SYSCLKSource == RCC_SYSCLKSOURCE_HSE)
 8000b10:	6862      	ldr	r2, [r4, #4]
 8000b12:	4d37      	ldr	r5, [pc, #220]	@ (8000bf0 <HAL_RCC_ClockConfig+0x13c>)
 8000b14:	2a01      	cmp	r2, #1
 8000b16:	d125      	bne.n	8000b64 <HAL_RCC_ClockConfig+0xb0>
 8000b18:	f44f 3300 	mov.w	r3, #131072	@ 0x20000
 8000b1c:	fa93 f0a3 	rbit	r0, r3
      if(__HAL_RCC_GET_FLAG(RCC_FLAG_HSERDY) == RESET)
 8000b20:	6828      	ldr	r0, [r5, #0]
 8000b22:	fa93 f3a3 	rbit	r3, r3
 8000b26:	fab3 f383 	clz	r3, r3
 8000b2a:	fa02 f303 	lsl.w	r3, r2, r3
 8000b2e:	4203      	tst	r3, r0
      if(__HAL_RCC_GET_FLAG(RCC_FLAG_HSIRDY) == RESET)
 8000b30:	d0e4      	beq.n	8000afc <HAL_RCC_ClockConfig+0x48>
    __HAL_RCC_SYSCLK_CONFIG(RCC_ClkInitStruct->SYSCLKSource);
 8000b32:	686b      	ldr	r3, [r5, #4]
 8000b34:	f023 0303 	bic.w	r3, r3, #3
 8000b38:	4313      	orrs	r3, r2
 8000b3a:	606b      	str	r3, [r5, #4]
    tickstart = HAL_GetTick();
 8000b3c:	f7ff fd6c 	bl	8000618 <HAL_GetTick>
    if(RCC_ClkInitStruct->SYSCLKSource == RCC_SYSCLKSOURCE_HSE)
 8000b40:	6863      	ldr	r3, [r4, #4]
 8000b42:	2b01      	cmp	r3, #1
    tickstart = HAL_GetTick();
 8000b44:	4606      	mov	r6, r0
        if((HAL_GetTick() - tickstart ) > CLOCKSWITCH_TIMEOUT_VALUE)
 8000b46:	f241 3788 	movw	r7, #5000	@ 0x1388
    if(RCC_ClkInitStruct->SYSCLKSource == RCC_SYSCLKSOURCE_HSE)
 8000b4a:	d11c      	bne.n	8000b86 <HAL_RCC_ClockConfig+0xd2>
      while (__HAL_RCC_GET_SYSCLK_SOURCE() != RCC_SYSCLKSOURCE_STATUS_HSE)
 8000b4c:	686b      	ldr	r3, [r5, #4]
 8000b4e:	f003 030c 	and.w	r3, r3, #12
 8000b52:	2b04      	cmp	r3, #4
 8000b54:	d0bb      	beq.n	8000ace <HAL_RCC_ClockConfig+0x1a>
        if((HAL_GetTick() - tickstart ) > CLOCKSWITCH_TIMEOUT_VALUE)
 8000b56:	f7ff fd5f 	bl	8000618 <HAL_GetTick>
 8000b5a:	1b80      	subs	r0, r0, r6
 8000b5c:	42b8      	cmp	r0, r7
 8000b5e:	d9f5      	bls.n	8000b4c <HAL_RCC_ClockConfig+0x98>
          return HAL_TIMEOUT;
 8000b60:	2003      	movs	r0, #3
 8000b62:	e7cc      	b.n	8000afe <HAL_RCC_ClockConfig+0x4a>
    else if(RCC_ClkInitStruct->SYSCLKSource == RCC_SYSCLKSOURCE_PLLCLK)
 8000b64:	2a02      	cmp	r2, #2
 8000b66:	bf0c      	ite	eq
 8000b68:	f04f 7300 	moveq.w	r3, #33554432	@ 0x2000000
 8000b6c:	2302      	movne	r3, #2
 8000b6e:	fa93 f0a3 	rbit	r0, r3
      if(__HAL_RCC_GET_FLAG(RCC_FLAG_HSIRDY) == RESET)
 8000b72:	682e      	ldr	r6, [r5, #0]
 8000b74:	fa93 f3a3 	rbit	r3, r3
 8000b78:	2001      	movs	r0, #1
 8000b7a:	fab3 f383 	clz	r3, r3
 8000b7e:	fa00 f303 	lsl.w	r3, r0, r3
 8000b82:	4233      	tst	r3, r6
 8000b84:	e7d4      	b.n	8000b30 <HAL_RCC_ClockConfig+0x7c>
    else if(RCC_ClkInitStruct->SYSCLKSource == RCC_SYSCLKSOURCE_PLLCLK)
 8000b86:	2b02      	cmp	r3, #2
 8000b88:	d10f      	bne.n	8000baa <HAL_RCC_ClockConfig+0xf6>
      while (__HAL_RCC_GET_SYSCLK_SOURCE() != RCC_SYSCLKSOURCE_STATUS_PLLCLK)
 8000b8a:	686b      	ldr	r3, [r5, #4]
 8000b8c:	f003 030c 	and.w	r3, r3, #12
 8000b90:	2b08      	cmp	r3, #8
 8000b92:	d09c      	beq.n	8000ace <HAL_RCC_ClockConfig+0x1a>
        if((HAL_GetTick() - tickstart ) > CLOCKSWITCH_TIMEOUT_VALUE)
 8000b94:	f7ff fd40 	bl	8000618 <HAL_GetTick>
 8000b98:	1b80      	subs	r0, r0, r6
 8000b9a:	42b8      	cmp	r0, r7
 8000b9c:	d9f5      	bls.n	8000b8a <HAL_RCC_ClockConfig+0xd6>
 8000b9e:	e7df      	b.n	8000b60 <HAL_RCC_ClockConfig+0xac>
        if((HAL_GetTick() - tickstart ) > CLOCKSWITCH_TIMEOUT_VALUE)
 8000ba0:	f7ff fd3a 	bl	8000618 <HAL_GetTick>
 8000ba4:	1b80      	subs	r0, r0, r6
 8000ba6:	42b8      	cmp	r0, r7
 8000ba8:	d8da      	bhi.n	8000b60 <HAL_RCC_ClockConfig+0xac>
      while (__HAL_RCC_GET_SYSCLK_SOURCE() != RCC_SYSCLKSOURCE_STATUS_HSI)
 8000baa:	686b      	ldr	r3, [r5, #4]
 8000bac:	f013 0f0c 	tst.w	r3, #12
 8000bb0:	d1f6      	bne.n	8000ba0 <HAL_RCC_ClockConfig+0xec>
 8000bb2:	e78c      	b.n	8000ace <HAL_RCC_ClockConfig+0x1a>
    __HAL_FLASH_SET_LATENCY(FLatency);
 8000bb4:	6813      	ldr	r3, [r2, #0]
 8000bb6:	f023 0307 	bic.w	r3, r3, #7
 8000bba:	430b      	orrs	r3, r1
 8000bbc:	6013      	str	r3, [r2, #0]
    if((FLASH->ACR & FLASH_ACR_LATENCY) != FLatency)
 8000bbe:	6813      	ldr	r3, [r2, #0]
 8000bc0:	f003 0307 	and.w	r3, r3, #7
 8000bc4:	428b      	cmp	r3, r1
 8000bc6:	d199      	bne.n	8000afc <HAL_RCC_ClockConfig+0x48>
 8000bc8:	e787      	b.n	8000ada <HAL_RCC_ClockConfig+0x26>
    MODIFY_REG(RCC->CFGR, RCC_CFGR_PPRE1, RCC_ClkInitStruct->APB1CLKDivider);
 8000bca:	4909      	ldr	r1, [pc, #36]	@ (8000bf0 <HAL_RCC_ClockConfig+0x13c>)
 8000bcc:	68e0      	ldr	r0, [r4, #12]
 8000bce:	684b      	ldr	r3, [r1, #4]
 8000bd0:	f423 63e0 	bic.w	r3, r3, #1792	@ 0x700
 8000bd4:	4303      	orrs	r3, r0
 8000bd6:	604b      	str	r3, [r1, #4]
 8000bd8:	e782      	b.n	8000ae0 <HAL_RCC_ClockConfig+0x2c>
    MODIFY_REG(RCC->CFGR, RCC_CFGR_PPRE2, ((RCC_ClkInitStruct->APB2CLKDivider) << 3U));
 8000bda:	4a05      	ldr	r2, [pc, #20]	@ (8000bf0 <HAL_RCC_ClockConfig+0x13c>)
 8000bdc:	6921      	ldr	r1, [r4, #16]
 8000bde:	6853      	ldr	r3, [r2, #4]
 8000be0:	f423 5360 	bic.w	r3, r3, #14336	@ 0x3800
 8000be4:	ea43 03c1 	orr.w	r3, r3, r1, lsl #3
 8000be8:	6053      	str	r3, [r2, #4]
 8000bea:	e77b      	b.n	8000ae4 <HAL_RCC_ClockConfig+0x30>
 8000bec:	40022000 	.word	0x40022000
 8000bf0:	40021000 	.word	0x40021000

08000bf4 <HAL_GPIO_Init>:
  * @param  GPIO_Init: pointer to a GPIO_InitTypeDef structure that contains
  *         the configuration information for the specified GPIO peripheral.
  * @retval None
  */
void HAL_GPIO_Init(GPIO_TypeDef  *GPIOx, GPIO_InitTypeDef *GPIO_Init)
{
 8000bf4:	e92d 4ff7 	stmdb	sp!, {r0, r1, r2, r4, r5, r6, r7, r8, r9, sl, fp, lr}
      /*--------------------- EXTI Mode Configuration ------------------------*/
      /* Configure the External Interrupt or event for the current IO */
      if((GPIO_Init->Mode & EXTI_MODE) == EXTI_MODE)
      {
        /* Enable SYSCFG Clock */
        __HAL_RCC_SYSCFG_CLK_ENABLE();
 8000bf8:	f8df 8168 	ldr.w	r8, [pc, #360]	@ 8000d64 <HAL_GPIO_Init+0x170>
        temp &= ~((0x0FU) << (4U * (position & 0x03U)));
        temp |= (GPIO_GET_INDEX(GPIOx) << (4U * (position & 0x03U)));
        SYSCFG->EXTICR[position >> 2] = temp;

        /* Clear EXTI line configuration */
        temp = EXTI->IMR;
 8000bfc:	4c5a      	ldr	r4, [pc, #360]	@ (8000d68 <HAL_GPIO_Init+0x174>)
  uint32_t position = 0x00U;
 8000bfe:	2300      	movs	r3, #0
        temp &= ~((0x0FU) << (4U * (position & 0x03U)));
 8000c00:	f04f 090f 	mov.w	r9, #15
  while (((GPIO_Init->Pin) >> position) != RESET)
 8000c04:	680a      	ldr	r2, [r1, #0]
 8000c06:	fa32 f503 	lsrs.w	r5, r2, r3
 8000c0a:	d102      	bne.n	8000c12 <HAL_GPIO_Init+0x1e>
      }
    }
    
    position++;
  }
}
 8000c0c:	b003      	add	sp, #12
 8000c0e:	e8bd 8ff0 	ldmia.w	sp!, {r4, r5, r6, r7, r8, r9, sl, fp, pc}
    iocurrent = (GPIO_Init->Pin) & (1U << position);
 8000c12:	2501      	movs	r5, #1
 8000c14:	fa05 fa03 	lsl.w	sl, r5, r3
    if(iocurrent)
 8000c18:	ea1a 0202 	ands.w	r2, sl, r2
 8000c1c:	f000 8098 	beq.w	8000d50 <HAL_GPIO_Init+0x15c>
      if((GPIO_Init->Mode == GPIO_MODE_AF_PP) || (GPIO_Init->Mode == GPIO_MODE_AF_OD))
 8000c20:	684d      	ldr	r5, [r1, #4]
 8000c22:	f025 0e10 	bic.w	lr, r5, #16
 8000c26:	f1be 0f02 	cmp.w	lr, #2
 8000c2a:	d111      	bne.n	8000c50 <HAL_GPIO_Init+0x5c>
        temp = GPIOx->AFR[position >> 3];
 8000c2c:	08df      	lsrs	r7, r3, #3
 8000c2e:	eb00 0787 	add.w	r7, r0, r7, lsl #2
        temp &= ~(0xFU << ((uint32_t)(position & 0x07U) * 4U)) ;
 8000c32:	f003 0c07 	and.w	ip, r3, #7
        temp = GPIOx->AFR[position >> 3];
 8000c36:	6a3e      	ldr	r6, [r7, #32]
        temp &= ~(0xFU << ((uint32_t)(position & 0x07U) * 4U)) ;
 8000c38:	ea4f 0c8c 	mov.w	ip, ip, lsl #2
 8000c3c:	fa09 fb0c 	lsl.w	fp, r9, ip
 8000c40:	ea26 0b0b 	bic.w	fp, r6, fp
        temp |= ((uint32_t)(GPIO_Init->Alternate) << (((uint32_t)position & 0x07U) * 4U));
 8000c44:	690e      	ldr	r6, [r1, #16]
 8000c46:	fa06 f60c 	lsl.w	r6, r6, ip
 8000c4a:	ea46 060b 	orr.w	r6, r6, fp
        GPIOx->AFR[position >> 3] = temp;
 8000c4e:	623e      	str	r6, [r7, #32]
      temp = GPIOx->MODER;
 8000c50:	f8d0 b000 	ldr.w	fp, [r0]
      temp &= ~(GPIO_MODER_MODER0 << (position * 2U));
 8000c54:	ea4f 0c43 	mov.w	ip, r3, lsl #1
 8000c58:	2603      	movs	r6, #3
 8000c5a:	fa06 f70c 	lsl.w	r7, r6, ip
 8000c5e:	ea2b 0b07 	bic.w	fp, fp, r7
 8000c62:	43fe      	mvns	r6, r7
      temp |= ((GPIO_Init->Mode & GPIO_MODE) << (position * 2U));
 8000c64:	f005 0703 	and.w	r7, r5, #3
 8000c68:	fa07 f70c 	lsl.w	r7, r7, ip
      if((GPIO_Init->Mode == GPIO_MODE_OUTPUT_PP) || (GPIO_Init->Mode == GPIO_MODE_AF_PP) ||
 8000c6c:	f10e 3eff 	add.w	lr, lr, #4294967295	@ 0xffffffff
      temp |= ((GPIO_Init->Mode & GPIO_MODE) << (position * 2U));
 8000c70:	ea47 070b 	orr.w	r7, r7, fp
      if((GPIO_Init->Mode == GPIO_MODE_OUTPUT_PP) || (GPIO_Init->Mode == GPIO_MODE_AF_PP) ||
 8000c74:	f1be 0f01 	cmp.w	lr, #1
      GPIOx->MODER = temp;
 8000c78:	6007      	str	r7, [r0, #0]
      if((GPIO_Init->Mode == GPIO_MODE_OUTPUT_PP) || (GPIO_Init->Mode == GPIO_MODE_AF_PP) ||
 8000c7a:	d810      	bhi.n	8000c9e <HAL_GPIO_Init+0xaa>
        temp = GPIOx->OSPEEDR;
 8000c7c:	6887      	ldr	r7, [r0, #8]
        temp &= ~(GPIO_OSPEEDER_OSPEEDR0 << (position * 2U));
 8000c7e:	ea06 0e07 	and.w	lr, r6, r7
        temp |= (GPIO_Init->Speed << (position * 2U));
 8000c82:	68cf      	ldr	r7, [r1, #12]
 8000c84:	fa07 f70c 	lsl.w	r7, r7, ip
 8000c88:	ea47 070e 	orr.w	r7, r7, lr
        GPIOx->OSPEEDR = temp;
 8000c8c:	6087      	str	r7, [r0, #8]
        temp = GPIOx->OTYPER;
 8000c8e:	6847      	ldr	r7, [r0, #4]
        temp &= ~(GPIO_OTYPER_OT_0 << position) ;
 8000c90:	ea27 0e0a 	bic.w	lr, r7, sl
        temp |= (((GPIO_Init->Mode & GPIO_OUTPUT_TYPE) >> 4U) << position);
 8000c94:	092f      	lsrs	r7, r5, #4
 8000c96:	409f      	lsls	r7, r3
 8000c98:	ea47 070e 	orr.w	r7, r7, lr
        GPIOx->OTYPER = temp;
 8000c9c:	6047      	str	r7, [r0, #4]
      temp = GPIOx->PUPDR;
 8000c9e:	68c7      	ldr	r7, [r0, #12]
      temp &= ~(GPIO_PUPDR_PUPDR0 << (position * 2U));
 8000ca0:	4037      	ands	r7, r6
      temp |= ((GPIO_Init->Pull) << (position * 2U));
 8000ca2:	688e      	ldr	r6, [r1, #8]
 8000ca4:	fa06 f60c 	lsl.w	r6, r6, ip
 8000ca8:	433e      	orrs	r6, r7
      GPIOx->PUPDR = temp;
 8000caa:	60c6      	str	r6, [r0, #12]
      if((GPIO_Init->Mode & EXTI_MODE) == EXTI_MODE)
 8000cac:	00ee      	lsls	r6, r5, #3
 8000cae:	d54f      	bpl.n	8000d50 <HAL_GPIO_Init+0x15c>
        __HAL_RCC_SYSCFG_CLK_ENABLE();
 8000cb0:	f8d8 6018 	ldr.w	r6, [r8, #24]
 8000cb4:	f046 0601 	orr.w	r6, r6, #1
 8000cb8:	f8c8 6018 	str.w	r6, [r8, #24]
 8000cbc:	f8d8 6018 	ldr.w	r6, [r8, #24]
 8000cc0:	f023 0703 	bic.w	r7, r3, #3
 8000cc4:	f107 4780 	add.w	r7, r7, #1073741824	@ 0x40000000
 8000cc8:	f006 0601 	and.w	r6, r6, #1
 8000ccc:	f507 3780 	add.w	r7, r7, #65536	@ 0x10000
 8000cd0:	9601      	str	r6, [sp, #4]
        temp &= ~((0x0FU) << (4U * (position & 0x03U)));
 8000cd2:	f003 0c03 	and.w	ip, r3, #3
        __HAL_RCC_SYSCFG_CLK_ENABLE();
 8000cd6:	9e01      	ldr	r6, [sp, #4]
        temp = SYSCFG->EXTICR[position >> 2];
 8000cd8:	68be      	ldr	r6, [r7, #8]
        temp &= ~((0x0FU) << (4U * (position & 0x03U)));
 8000cda:	ea4f 0c8c 	mov.w	ip, ip, lsl #2
 8000cde:	fa09 fe0c 	lsl.w	lr, r9, ip
        temp |= (GPIO_GET_INDEX(GPIOx) << (4U * (position & 0x03U)));
 8000ce2:	f1b0 4f90 	cmp.w	r0, #1207959552	@ 0x48000000
        temp &= ~((0x0FU) << (4U * (position & 0x03U)));
 8000ce6:	ea26 0e0e 	bic.w	lr, r6, lr
        temp |= (GPIO_GET_INDEX(GPIOx) << (4U * (position & 0x03U)));
 8000cea:	d033      	beq.n	8000d54 <HAL_GPIO_Init+0x160>
 8000cec:	4e1f      	ldr	r6, [pc, #124]	@ (8000d6c <HAL_GPIO_Init+0x178>)
 8000cee:	42b0      	cmp	r0, r6
 8000cf0:	d032      	beq.n	8000d58 <HAL_GPIO_Init+0x164>
 8000cf2:	f506 6680 	add.w	r6, r6, #1024	@ 0x400
 8000cf6:	42b0      	cmp	r0, r6
 8000cf8:	d030      	beq.n	8000d5c <HAL_GPIO_Init+0x168>
 8000cfa:	f506 6680 	add.w	r6, r6, #1024	@ 0x400
 8000cfe:	42b0      	cmp	r0, r6
 8000d00:	d02e      	beq.n	8000d60 <HAL_GPIO_Init+0x16c>
 8000d02:	f506 6680 	add.w	r6, r6, #1024	@ 0x400
 8000d06:	42b0      	cmp	r0, r6
 8000d08:	bf14      	ite	ne
 8000d0a:	2605      	movne	r6, #5
 8000d0c:	2604      	moveq	r6, #4
 8000d0e:	fa06 f60c 	lsl.w	r6, r6, ip
 8000d12:	ea46 060e 	orr.w	r6, r6, lr
        SYSCFG->EXTICR[position >> 2] = temp;
 8000d16:	60be      	str	r6, [r7, #8]
        temp = EXTI->IMR;
 8000d18:	6826      	ldr	r6, [r4, #0]
        temp &= ~((uint32_t)iocurrent);
 8000d1a:	43d7      	mvns	r7, r2
        if((GPIO_Init->Mode & GPIO_MODE_IT) == GPIO_MODE_IT)
 8000d1c:	f415 3f80 	tst.w	r5, #65536	@ 0x10000
        temp &= ~((uint32_t)iocurrent);
 8000d20:	bf0c      	ite	eq
 8000d22:	403e      	andeq	r6, r7
          temp |= iocurrent;
 8000d24:	4316      	orrne	r6, r2
        EXTI->IMR = temp;
 8000d26:	6026      	str	r6, [r4, #0]
        temp = EXTI->EMR;
 8000d28:	6866      	ldr	r6, [r4, #4]
        if((GPIO_Init->Mode & GPIO_MODE_EVT) == GPIO_MODE_EVT)
 8000d2a:	f415 3f00 	tst.w	r5, #131072	@ 0x20000
        temp &= ~((uint32_t)iocurrent);
 8000d2e:	bf0c      	ite	eq
 8000d30:	403e      	andeq	r6, r7
          temp |= iocurrent;
 8000d32:	4316      	orrne	r6, r2
        EXTI->EMR = temp;
 8000d34:	6066      	str	r6, [r4, #4]
        temp = EXTI->RTSR;
 8000d36:	68a6      	ldr	r6, [r4, #8]
        if((GPIO_Init->Mode & RISING_EDGE) == RISING_EDGE)
 8000d38:	f415 1f80 	tst.w	r5, #1048576	@ 0x100000
        temp &= ~((uint32_t)iocurrent);
 8000d3c:	bf0c      	ite	eq
 8000d3e:	403e      	andeq	r6, r7
          temp |= iocurrent;
 8000d40:	4316      	orrne	r6, r2
        EXTI->RTSR = temp;
 8000d42:	60a6      	str	r6, [r4, #8]
        temp = EXTI->FTSR;
 8000d44:	68e6      	ldr	r6, [r4, #12]
        if((GPIO_Init->Mode & FALLING_EDGE) == FALLING_EDGE)
 8000d46:	02ad      	lsls	r5, r5, #10
        temp &= ~((uint32_t)iocurrent);
 8000d48:	bf54      	ite	pl
 8000d4a:	403e      	andpl	r6, r7
          temp |= iocurrent;
 8000d4c:	4316      	orrmi	r6, r2
        EXTI->FTSR = temp;
 8000d4e:	60e6      	str	r6, [r4, #12]
    position++;
 8000d50:	3301      	adds	r3, #1
 8000d52:	e757      	b.n	8000c04 <HAL_GPIO_Init+0x10>
        temp |= (GPIO_GET_INDEX(GPIOx) << (4U * (position & 0x03U)));
 8000d54:	2600      	movs	r6, #0
 8000d56:	e7da      	b.n	8000d0e <HAL_GPIO_Init+0x11a>
 8000d58:	2601      	movs	r6, #1
 8000d5a:	e7d8      	b.n	8000d0e <HAL_GPIO_Init+0x11a>
 8000d5c:	2602      	movs	r6, #2
 8000d5e:	e7d6      	b.n	8000d0e <HAL_GPIO_Init+0x11a>
 8000d60:	2603      	movs	r6, #3
 8000d62:	e7d4      	b.n	8000d0e <HAL_GPIO_Init+0x11a>
 8000d64:	40021000 	.word	0x40021000
 8000d68:	40010400 	.word	0x40010400
 8000d6c:	48000400 	.word	0x48000400

08000d70 <HAL_GPIO_WritePin>:
{
  /* Check the parameters */
  assert_param(IS_GPIO_PIN(GPIO_Pin));
  assert_param(IS_GPIO_PIN_ACTION(PinState));

  if(PinState != GPIO_PIN_RESET)
 8000d70:	b10a      	cbz	r2, 8000d76 <HAL_GPIO_WritePin+0x6>
  {
    GPIOx->BSRR = (uint32_t)GPIO_Pin;
 8000d72:	6181      	str	r1, [r0, #24]
 8000d74:	4770      	bx	lr
  }
  else
  {
    GPIOx->BRR = (uint32_t)GPIO_Pin;
 8000d76:	6281      	str	r1, [r0, #40]	@ 0x28
  }
}
 8000d78:	4770      	bx	lr
 8000d7a:	0000      	movs	r0, r0

08000d7c <UART_SetConfig>:
   *  set the M bits according to huart->Init.WordLength value
   *  set PCE and PS bits according to huart->Init.Parity value
   *  set TE and RE bits according to huart->Init.Mode value
   *  set OVER8 bit according to huart->Init.OverSampling value */
  tmpreg = (uint32_t)huart->Init.WordLength | huart->Init.Parity | huart->Init.Mode | huart->Init.OverSampling ;
  MODIFY_REG(huart->Instance->CR1, UART_CR1_FIELDS, tmpreg);
 8000d7c:	6802      	ldr	r2, [r0, #0]
  tmpreg = (uint32_t)huart->Init.WordLength | huart->Init.Parity | huart->Init.Mode | huart->Init.OverSampling ;
 8000d7e:	6883      	ldr	r3, [r0, #8]
 8000d80:	69c1      	ldr	r1, [r0, #28]
{
 8000d82:	b530      	push	{r4, r5, lr}
  tmpreg = (uint32_t)huart->Init.WordLength | huart->Init.Parity | huart->Init.Mode | huart->Init.OverSampling ;
 8000d84:	6905      	ldr	r5, [r0, #16]
  MODIFY_REG(huart->Instance->CR1, UART_CR1_FIELDS, tmpreg);
 8000d86:	6814      	ldr	r4, [r2, #0]
  tmpreg = (uint32_t)huart->Init.WordLength | huart->Init.Parity | huart->Init.Mode | huart->Init.OverSampling ;
 8000d88:	432b      	orrs	r3, r5
 8000d8a:	6945      	ldr	r5, [r0, #20]
  MODIFY_REG(huart->Instance->CR1, UART_CR1_FIELDS, tmpreg);
 8000d8c:	f424 4416 	bic.w	r4, r4, #38400	@ 0x9600
  tmpreg = (uint32_t)huart->Init.WordLength | huart->Init.Parity | huart->Init.Mode | huart->Init.OverSampling ;
 8000d90:	432b      	orrs	r3, r5
  MODIFY_REG(huart->Instance->CR1, UART_CR1_FIELDS, tmpreg);
 8000d92:	f024 040c 	bic.w	r4, r4, #12
  tmpreg = (uint32_t)huart->Init.WordLength | huart->Init.Parity | huart->Init.Mode | huart->Init.OverSampling ;
 8000d96:	430b      	orrs	r3, r1
  MODIFY_REG(huart->Instance->CR1, UART_CR1_FIELDS, tmpreg);
 8000d98:	4323      	orrs	r3, r4
 8000d9a:	6013      	str	r3, [r2, #0]

  /*-------------------------- USART CR2 Configuration -----------------------*/
  /* Configure the UART Stop Bits: Set STOP[13:12] bits according
   * to huart->Init.StopBits value */
  MODIFY_REG(huart->Instance->CR2, USART_CR2_STOP, huart->Init.StopBits);
 8000d9c:	6853      	ldr	r3, [r2, #4]
 8000d9e:	68c4      	ldr	r4, [r0, #12]
  /* Configure
   * - UART HardWare Flow Control: set CTSE and RTSE bits according
   *   to huart->Init.HwFlowCtl value
   * - one-bit sampling method versus three samples' majority rule according
   *   to huart->Init.OneBitSampling */
  tmpreg = (uint32_t)huart->Init.HwFlowCtl | huart->Init.OneBitSampling ;
 8000da0:	6a05      	ldr	r5, [r0, #32]
  MODIFY_REG(huart->Instance->CR2, USART_CR2_STOP, huart->Init.StopBits);
 8000da2:	f423 5340 	bic.w	r3, r3, #12288	@ 0x3000
 8000da6:	4323      	orrs	r3, r4
 8000da8:	6053      	str	r3, [r2, #4]
  MODIFY_REG(huart->Instance->CR3, (USART_CR3_RTSE | USART_CR3_CTSE | USART_CR3_ONEBIT), tmpreg);
 8000daa:	6894      	ldr	r4, [r2, #8]
  tmpreg = (uint32_t)huart->Init.HwFlowCtl | huart->Init.OneBitSampling ;
 8000dac:	6983      	ldr	r3, [r0, #24]
  MODIFY_REG(huart->Instance->CR3, (USART_CR3_RTSE | USART_CR3_CTSE | USART_CR3_ONEBIT), tmpreg);
 8000dae:	f424 6430 	bic.w	r4, r4, #2816	@ 0xb00
  tmpreg = (uint32_t)huart->Init.HwFlowCtl | huart->Init.OneBitSampling ;
 8000db2:	432b      	orrs	r3, r5
  MODIFY_REG(huart->Instance->CR3, (USART_CR3_RTSE | USART_CR3_CTSE | USART_CR3_ONEBIT), tmpreg);
 8000db4:	4323      	orrs	r3, r4
 8000db6:	6093      	str	r3, [r2, #8]

  /*-------------------------- USART BRR Configuration -----------------------*/
  UART_GETCLOCKSOURCE(huart, clocksource);
 8000db8:	4b46      	ldr	r3, [pc, #280]	@ (8000ed4 <UART_SetConfig+0x158>)
 8000dba:	429a      	cmp	r2, r3
 8000dbc:	d10d      	bne.n	8000dda <UART_SetConfig+0x5e>
 8000dbe:	f503 4358 	add.w	r3, r3, #55296	@ 0xd800
 8000dc2:	6b1b      	ldr	r3, [r3, #48]	@ 0x30
 8000dc4:	f003 0303 	and.w	r3, r3, #3
 8000dc8:	2b02      	cmp	r3, #2
 8000dca:	d070      	beq.n	8000eae <UART_SetConfig+0x132>
 8000dcc:	2b03      	cmp	r3, #3
 8000dce:	d076      	beq.n	8000ebe <UART_SetConfig+0x142>

  /* Check UART Over Sampling to set Baud Rate Register */
  if (huart->Init.OverSampling == UART_OVERSAMPLING_8)
 8000dd0:	f5b1 4f00 	cmp.w	r1, #32768	@ 0x8000
 8000dd4:	6841      	ldr	r1, [r0, #4]
 8000dd6:	d04e      	beq.n	8000e76 <UART_SetConfig+0xfa>
 8000dd8:	e011      	b.n	8000dfe <UART_SetConfig+0x82>
  UART_GETCLOCKSOURCE(huart, clocksource);
 8000dda:	4b3f      	ldr	r3, [pc, #252]	@ (8000ed8 <UART_SetConfig+0x15c>)
 8000ddc:	429a      	cmp	r2, r3
 8000dde:	d11c      	bne.n	8000e1a <UART_SetConfig+0x9e>
 8000de0:	f503 33e6 	add.w	r3, r3, #117760	@ 0x1cc00
 8000de4:	6b1b      	ldr	r3, [r3, #48]	@ 0x30
 8000de6:	f403 3340 	and.w	r3, r3, #196608	@ 0x30000
 8000dea:	f5b3 3f00 	cmp.w	r3, #131072	@ 0x20000
 8000dee:	d05e      	beq.n	8000eae <UART_SetConfig+0x132>
 8000df0:	d809      	bhi.n	8000e06 <UART_SetConfig+0x8a>
 8000df2:	2b00      	cmp	r3, #0
 8000df4:	d1ec      	bne.n	8000dd0 <UART_SetConfig+0x54>
  if (huart->Init.OverSampling == UART_OVERSAMPLING_8)
 8000df6:	f5b1 4f00 	cmp.w	r1, #32768	@ 0x8000
 8000dfa:	d03b      	beq.n	8000e74 <UART_SetConfig+0xf8>
  else
  {
    switch (clocksource)
    {
      case UART_CLOCKSOURCE_PCLK1:
        huart->Instance->BRR = (uint16_t)(UART_DIV_SAMPLING16(HAL_RCC_GetPCLK1Freq(), huart->Init.BaudRate));
 8000dfc:	6841      	ldr	r1, [r0, #4]
        break;
      case UART_CLOCKSOURCE_PCLK2:
        huart->Instance->BRR = (uint16_t)(UART_DIV_SAMPLING16(HAL_RCC_GetPCLK2Freq(), huart->Init.BaudRate));
 8000dfe:	084b      	lsrs	r3, r1, #1
 8000e00:	f503 03e1 	add.w	r3, r3, #7372800	@ 0x708000
 8000e04:	e048      	b.n	8000e98 <UART_SetConfig+0x11c>
  UART_GETCLOCKSOURCE(huart, clocksource);
 8000e06:	f5b3 3f40 	cmp.w	r3, #196608	@ 0x30000
 8000e0a:	d058      	beq.n	8000ebe <UART_SetConfig+0x142>
  if (huart->Init.OverSampling == UART_OVERSAMPLING_8)
 8000e0c:	f5b1 4f00 	cmp.w	r1, #32768	@ 0x8000
        ret = HAL_ERROR;
 8000e10:	f04f 0001 	mov.w	r0, #1
  if (huart->Init.OverSampling == UART_OVERSAMPLING_8)
 8000e14:	d13c      	bne.n	8000e90 <UART_SetConfig+0x114>
  uint16_t usartdiv                   = 0x0000U;
 8000e16:	2300      	movs	r3, #0
 8000e18:	e034      	b.n	8000e84 <UART_SetConfig+0x108>
  UART_GETCLOCKSOURCE(huart, clocksource);
 8000e1a:	4b30      	ldr	r3, [pc, #192]	@ (8000edc <UART_SetConfig+0x160>)
 8000e1c:	429a      	cmp	r2, r3
 8000e1e:	d10b      	bne.n	8000e38 <UART_SetConfig+0xbc>
 8000e20:	f503 33e4 	add.w	r3, r3, #116736	@ 0x1c800
 8000e24:	6b1b      	ldr	r3, [r3, #48]	@ 0x30
 8000e26:	f403 2340 	and.w	r3, r3, #786432	@ 0xc0000
 8000e2a:	f5b3 2f00 	cmp.w	r3, #524288	@ 0x80000
 8000e2e:	d03e      	beq.n	8000eae <UART_SetConfig+0x132>
 8000e30:	d9df      	bls.n	8000df2 <UART_SetConfig+0x76>
 8000e32:	f5b3 2f40 	cmp.w	r3, #786432	@ 0xc0000
 8000e36:	e7e8      	b.n	8000e0a <UART_SetConfig+0x8e>
 8000e38:	4b29      	ldr	r3, [pc, #164]	@ (8000ee0 <UART_SetConfig+0x164>)
 8000e3a:	429a      	cmp	r2, r3
 8000e3c:	d10b      	bne.n	8000e56 <UART_SetConfig+0xda>
 8000e3e:	f503 33e2 	add.w	r3, r3, #115712	@ 0x1c400
 8000e42:	6b1b      	ldr	r3, [r3, #48]	@ 0x30
 8000e44:	f403 1340 	and.w	r3, r3, #3145728	@ 0x300000
 8000e48:	f5b3 1f00 	cmp.w	r3, #2097152	@ 0x200000
 8000e4c:	d02f      	beq.n	8000eae <UART_SetConfig+0x132>
 8000e4e:	d9d0      	bls.n	8000df2 <UART_SetConfig+0x76>
 8000e50:	f5b3 1f40 	cmp.w	r3, #3145728	@ 0x300000
 8000e54:	e7d9      	b.n	8000e0a <UART_SetConfig+0x8e>
 8000e56:	4b23      	ldr	r3, [pc, #140]	@ (8000ee4 <UART_SetConfig+0x168>)
 8000e58:	429a      	cmp	r2, r3
 8000e5a:	d1d7      	bne.n	8000e0c <UART_SetConfig+0x90>
 8000e5c:	f503 33e0 	add.w	r3, r3, #114688	@ 0x1c000
 8000e60:	6b1b      	ldr	r3, [r3, #48]	@ 0x30
 8000e62:	f403 0340 	and.w	r3, r3, #12582912	@ 0xc00000
 8000e66:	f5b3 0f00 	cmp.w	r3, #8388608	@ 0x800000
 8000e6a:	d020      	beq.n	8000eae <UART_SetConfig+0x132>
 8000e6c:	d9c1      	bls.n	8000df2 <UART_SetConfig+0x76>
 8000e6e:	f5b3 0f40 	cmp.w	r3, #12582912	@ 0xc00000
 8000e72:	e7ca      	b.n	8000e0a <UART_SetConfig+0x8e>
        usartdiv = (uint16_t)(UART_DIV_SAMPLING8(HAL_RCC_GetPCLK1Freq(), huart->Init.BaudRate));
 8000e74:	6841      	ldr	r1, [r0, #4]
 8000e76:	084b      	lsrs	r3, r1, #1
 8000e78:	f503 0361 	add.w	r3, r3, #14745600	@ 0xe10000
 8000e7c:	fbb3 f3f1 	udiv	r3, r3, r1
  HAL_StatusTypeDef ret               = HAL_OK;
 8000e80:	2000      	movs	r0, #0
        usartdiv = (uint16_t)(UART_DIV_SAMPLING8(HAL_RCC_GetPCLK1Freq(), huart->Init.BaudRate));
 8000e82:	b29b      	uxth	r3, r3
    brrtemp = usartdiv & 0xFFF0U;
 8000e84:	f023 010f 	bic.w	r1, r3, #15
    brrtemp |= (uint16_t)((usartdiv & (uint16_t)0x000FU) >> 1U);
 8000e88:	f3c3 0342 	ubfx	r3, r3, #1, #3
    huart->Instance->BRR = brrtemp;
 8000e8c:	430b      	orrs	r3, r1
 8000e8e:	60d3      	str	r3, [r2, #12]
    }
  }

  return ret;

}
 8000e90:	bd30      	pop	{r4, r5, pc}
        huart->Instance->BRR = (uint16_t)(UART_DIV_SAMPLING16(LSE_VALUE, huart->Init.BaudRate));
 8000e92:	084b      	lsrs	r3, r1, #1
 8000e94:	f503 4300 	add.w	r3, r3, #32768	@ 0x8000
        huart->Instance->BRR = (uint16_t)(UART_DIV_SAMPLING16(HAL_RCC_GetPCLK2Freq(), huart->Init.BaudRate));
 8000e98:	fbb3 f3f1 	udiv	r3, r3, r1
 8000e9c:	b29b      	uxth	r3, r3
 8000e9e:	60d3      	str	r3, [r2, #12]
  HAL_StatusTypeDef ret               = HAL_OK;
 8000ea0:	2000      	movs	r0, #0
  return ret;
 8000ea2:	e7f5      	b.n	8000e90 <UART_SetConfig+0x114>
        huart->Instance->BRR = (uint16_t)(UART_DIV_SAMPLING16(HSI_VALUE, huart->Init.BaudRate));
 8000ea4:	f503 0374 	add.w	r3, r3, #15990784	@ 0xf40000
 8000ea8:	f503 5310 	add.w	r3, r3, #9216	@ 0x2400
 8000eac:	e7f4      	b.n	8000e98 <UART_SetConfig+0x11c>
  if (huart->Init.OverSampling == UART_OVERSAMPLING_8)
 8000eae:	f5b1 4f00 	cmp.w	r1, #32768	@ 0x8000
 8000eb2:	6841      	ldr	r1, [r0, #4]
 8000eb4:	d1ed      	bne.n	8000e92 <UART_SetConfig+0x116>
        usartdiv = (uint16_t)(UART_DIV_SAMPLING8(LSE_VALUE, huart->Init.BaudRate));
 8000eb6:	084b      	lsrs	r3, r1, #1
 8000eb8:	f503 3380 	add.w	r3, r3, #65536	@ 0x10000
 8000ebc:	e7de      	b.n	8000e7c <UART_SetConfig+0x100>
  if (huart->Init.OverSampling == UART_OVERSAMPLING_8)
 8000ebe:	f5b1 4f00 	cmp.w	r1, #32768	@ 0x8000
 8000ec2:	6841      	ldr	r1, [r0, #4]
        usartdiv = (uint16_t)(UART_DIV_SAMPLING8(HSI_VALUE, huart->Init.BaudRate));
 8000ec4:	ea4f 0351 	mov.w	r3, r1, lsr #1
  if (huart->Init.OverSampling == UART_OVERSAMPLING_8)
 8000ec8:	d1ec      	bne.n	8000ea4 <UART_SetConfig+0x128>
        usartdiv = (uint16_t)(UART_DIV_SAMPLING8(HSI_VALUE, huart->Init.BaudRate));
 8000eca:	f103 73f4 	add.w	r3, r3, #31981568	@ 0x1e80000
 8000ece:	f503 4390 	add.w	r3, r3, #18432	@ 0x4800
 8000ed2:	e7d3      	b.n	8000e7c <UART_SetConfig+0x100>
 8000ed4:	40013800 	.word	0x40013800
 8000ed8:	40004400 	.word	0x40004400
 8000edc:	40004800 	.word	0x40004800
 8000ee0:	40004c00 	.word	0x40004c00
 8000ee4:	40005000 	.word	0x40005000

08000ee8 <UART_WaitOnFlagUntilTimeout>:
  * @param  Tickstart Tick start value
  * @param  Timeout Timeout duration
  * @retval HAL status
  */
HAL_StatusTypeDef UART_WaitOnFlagUntilTimeout(UART_HandleTypeDef *huart, uint32_t Flag, FlagStatus Status, uint32_t Tickstart, uint32_t Timeout)
{
 8000ee8:	e92d 41f0 	stmdb	sp!, {r4, r5, r6, r7, r8, lr}
 8000eec:	f8dd 8018 	ldr.w	r8, [sp, #24]
 8000ef0:	4604      	mov	r4, r0
 8000ef2:	4616      	mov	r6, r2
 8000ef4:	461f      	mov	r7, r3
  /* Wait until flag is set */
  while((__HAL_UART_GET_FLAG(huart, Flag) ? SET : RESET) == Status)
 8000ef6:	6825      	ldr	r5, [r4, #0]
 8000ef8:	69eb      	ldr	r3, [r5, #28]
 8000efa:	ea31 0303 	bics.w	r3, r1, r3
 8000efe:	bf0c      	ite	eq
 8000f00:	2301      	moveq	r3, #1
 8000f02:	2300      	movne	r3, #0
 8000f04:	42b3      	cmp	r3, r6
 8000f06:	d001      	beq.n	8000f0c <UART_WaitOnFlagUntilTimeout+0x24>
        __HAL_UNLOCK(huart);
        return HAL_TIMEOUT;
      }
    }
  }
  return HAL_OK;
 8000f08:	2000      	movs	r0, #0
 8000f0a:	e016      	b.n	8000f3a <UART_WaitOnFlagUntilTimeout+0x52>
    if(Timeout != HAL_MAX_DELAY)
 8000f0c:	f1b8 3fff 	cmp.w	r8, #4294967295	@ 0xffffffff
 8000f10:	d0f2      	beq.n	8000ef8 <UART_WaitOnFlagUntilTimeout+0x10>
      if((Timeout == 0U) || ((HAL_GetTick()-Tickstart) > Timeout))
 8000f12:	f1b8 0f00 	cmp.w	r8, #0
 8000f16:	d112      	bne.n	8000f3e <UART_WaitOnFlagUntilTimeout+0x56>
        CLEAR_BIT(huart->Instance->CR1, (USART_CR1_RXNEIE | USART_CR1_PEIE | USART_CR1_TXEIE));
 8000f18:	682b      	ldr	r3, [r5, #0]
 8000f1a:	f423 73d0 	bic.w	r3, r3, #416	@ 0x1a0
 8000f1e:	602b      	str	r3, [r5, #0]
        CLEAR_BIT(huart->Instance->CR3, USART_CR3_EIE);
 8000f20:	68ab      	ldr	r3, [r5, #8]
 8000f22:	f023 0301 	bic.w	r3, r3, #1
 8000f26:	60ab      	str	r3, [r5, #8]
        huart->gState  = HAL_UART_STATE_READY;
 8000f28:	2320      	movs	r3, #32
 8000f2a:	f884 3069 	strb.w	r3, [r4, #105]	@ 0x69
        huart->RxState = HAL_UART_STATE_READY;
 8000f2e:	f884 306a 	strb.w	r3, [r4, #106]	@ 0x6a
        __HAL_UNLOCK(huart);
 8000f32:	2300      	movs	r3, #0
 8000f34:	f884 3068 	strb.w	r3, [r4, #104]	@ 0x68
        return HAL_TIMEOUT;
 8000f38:	2003      	movs	r0, #3
}
 8000f3a:	e8bd 81f0 	ldmia.w	sp!, {r4, r5, r6, r7, r8, pc}
      if((Timeout == 0U) || ((HAL_GetTick()-Tickstart) > Timeout))
 8000f3e:	f7ff fb6b 	bl	8000618 <HAL_GetTick>
 8000f42:	1bc0      	subs	r0, r0, r7
 8000f44:	4540      	cmp	r0, r8
 8000f46:	d9d6      	bls.n	8000ef6 <UART_WaitOnFlagUntilTimeout+0xe>
 8000f48:	e7e6      	b.n	8000f18 <UART_WaitOnFlagUntilTimeout+0x30>

08000f4a <UART_CheckIdleState>:
{
 8000f4a:	b573      	push	{r0, r1, r4, r5, r6, lr}
 8000f4c:	4604      	mov	r4, r0
  huart->ErrorCode = HAL_UART_ERROR_NONE;
 8000f4e:	2100      	movs	r1, #0
 8000f50:	66c1      	str	r1, [r0, #108]	@ 0x6c
  tickstart = HAL_GetTick();
 8000f52:	f7ff fb61 	bl	8000618 <HAL_GetTick>
  if((huart->Instance->CR1 & USART_CR1_TE) == USART_CR1_TE)
 8000f56:	6826      	ldr	r6, [r4, #0]
 8000f58:	6833      	ldr	r3, [r6, #0]
 8000f5a:	071a      	lsls	r2, r3, #28
  tickstart = HAL_GetTick();
 8000f5c:	4605      	mov	r5, r0
  if((huart->Instance->CR1 & USART_CR1_TE) == USART_CR1_TE)
 8000f5e:	d416      	bmi.n	8000f8e <UART_CheckIdleState+0x44>
  if((huart->Instance->CR1 & USART_CR1_RE) == USART_CR1_RE)
 8000f60:	6833      	ldr	r3, [r6, #0]
 8000f62:	075b      	lsls	r3, r3, #29
 8000f64:	d50a      	bpl.n	8000f7c <UART_CheckIdleState+0x32>
    if(UART_WaitOnFlagUntilTimeout(huart, USART_ISR_REACK, RESET, tickstart, HAL_UART_TIMEOUT_VALUE) != HAL_OK)
 8000f66:	f06f 437e 	mvn.w	r3, #4261412864	@ 0xfe000000
 8000f6a:	9300      	str	r3, [sp, #0]
 8000f6c:	2200      	movs	r2, #0
 8000f6e:	462b      	mov	r3, r5
 8000f70:	f44f 0180 	mov.w	r1, #4194304	@ 0x400000
 8000f74:	4620      	mov	r0, r4
 8000f76:	f7ff ffb7 	bl	8000ee8 <UART_WaitOnFlagUntilTimeout>
 8000f7a:	b9a0      	cbnz	r0, 8000fa6 <UART_CheckIdleState+0x5c>
  huart->gState  = HAL_UART_STATE_READY;
 8000f7c:	2320      	movs	r3, #32
  __HAL_UNLOCK(huart);
 8000f7e:	2000      	movs	r0, #0
  huart->gState  = HAL_UART_STATE_READY;
 8000f80:	f884 3069 	strb.w	r3, [r4, #105]	@ 0x69
  __HAL_UNLOCK(huart);
 8000f84:	f884 0068 	strb.w	r0, [r4, #104]	@ 0x68
  huart->RxState = HAL_UART_STATE_READY;
 8000f88:	f884 306a 	strb.w	r3, [r4, #106]	@ 0x6a
  return HAL_OK;
 8000f8c:	e00c      	b.n	8000fa8 <UART_CheckIdleState+0x5e>
    if(UART_WaitOnFlagUntilTimeout(huart, USART_ISR_TEACK, RESET, tickstart, HAL_UART_TIMEOUT_VALUE) != HAL_OK)
 8000f8e:	f06f 437e 	mvn.w	r3, #4261412864	@ 0xfe000000
 8000f92:	9300      	str	r3, [sp, #0]
 8000f94:	460a      	mov	r2, r1
 8000f96:	4603      	mov	r3, r0
 8000f98:	f44f 1100 	mov.w	r1, #2097152	@ 0x200000
 8000f9c:	4620      	mov	r0, r4
 8000f9e:	f7ff ffa3 	bl	8000ee8 <UART_WaitOnFlagUntilTimeout>
 8000fa2:	2800      	cmp	r0, #0
 8000fa4:	d0dc      	beq.n	8000f60 <UART_CheckIdleState+0x16>
      return HAL_TIMEOUT;
 8000fa6:	2003      	movs	r0, #3
}
 8000fa8:	b002      	add	sp, #8
 8000faa:	bd70      	pop	{r4, r5, r6, pc}

08000fac <HAL_UART_Init>:
{
 8000fac:	b538      	push	{r3, r4, r5, lr}
  if(huart == NULL)
 8000fae:	4604      	mov	r4, r0
 8000fb0:	b320      	cbz	r0, 8000ffc <HAL_UART_Init+0x50>
  if(huart->gState == HAL_UART_STATE_RESET)
 8000fb2:	f890 3069 	ldrb.w	r3, [r0, #105]	@ 0x69
 8000fb6:	f003 02ff 	and.w	r2, r3, #255	@ 0xff
 8000fba:	b90b      	cbnz	r3, 8000fc0 <HAL_UART_Init+0x14>
    huart->Lock = HAL_UNLOCKED;
 8000fbc:	f880 2068 	strb.w	r2, [r0, #104]	@ 0x68
  __HAL_UART_DISABLE(huart);
 8000fc0:	6825      	ldr	r5, [r4, #0]
  huart->gState = HAL_UART_STATE_BUSY;
 8000fc2:	2324      	movs	r3, #36	@ 0x24
 8000fc4:	f884 3069 	strb.w	r3, [r4, #105]	@ 0x69
  __HAL_UART_DISABLE(huart);
 8000fc8:	682b      	ldr	r3, [r5, #0]
 8000fca:	f023 0301 	bic.w	r3, r3, #1
 8000fce:	602b      	str	r3, [r5, #0]
  if (UART_SetConfig(huart) == HAL_ERROR)
 8000fd0:	4620      	mov	r0, r4
 8000fd2:	f7ff fed3 	bl	8000d7c <UART_SetConfig>
 8000fd6:	2801      	cmp	r0, #1
 8000fd8:	d010      	beq.n	8000ffc <HAL_UART_Init+0x50>
  CLEAR_BIT(huart->Instance->CR2, (USART_CR2_LINEN | USART_CR2_CLKEN));
 8000fda:	686b      	ldr	r3, [r5, #4]
 8000fdc:	f423 4390 	bic.w	r3, r3, #18432	@ 0x4800
 8000fe0:	606b      	str	r3, [r5, #4]
  CLEAR_BIT(huart->Instance->CR3, (USART_CR3_SCEN | USART_CR3_HDSEL | USART_CR3_IREN));
 8000fe2:	68ab      	ldr	r3, [r5, #8]
 8000fe4:	f023 032a 	bic.w	r3, r3, #42	@ 0x2a
 8000fe8:	60ab      	str	r3, [r5, #8]
  __HAL_UART_ENABLE(huart);
 8000fea:	682b      	ldr	r3, [r5, #0]
 8000fec:	f043 0301 	orr.w	r3, r3, #1
 8000ff0:	602b      	str	r3, [r5, #0]
  return UART_CheckIdleState(huart);
 8000ff2:	4620      	mov	r0, r4
}
 8000ff4:	e8bd 4038 	ldmia.w	sp!, {r3, r4, r5, lr}
  return UART_CheckIdleState(huart);
 8000ff8:	f7ff bfa7 	b.w	8000f4a <UART_CheckIdleState>
}
 8000ffc:	2001      	movs	r0, #1
 8000ffe:	bd38      	pop	{r3, r4, r5, pc}

08001000 <HAL_UART_Transmit>:
  * @param Size: Amount of data to be sent.
  * @param Timeout: Timeout duration.
  * @retval HAL status
  */
HAL_StatusTypeDef HAL_UART_Transmit(UART_HandleTypeDef *huart, uint8_t *pData, uint16_t Size, uint32_t Timeout)
{
 8001000:	b5f7      	push	{r0, r1, r2, r4, r5, r6, r7, lr}
 8001002:	461e      	mov	r6, r3
  uint16_t* tmp;
  uint32_t tickstart = 0U;

  /* Check that a Tx process is not already ongoing */
  if(huart->gState == HAL_UART_STATE_READY)
 8001004:	f890 3069 	ldrb.w	r3, [r0, #105]	@ 0x69
 8001008:	2b20      	cmp	r3, #32
{
 800100a:	460d      	mov	r5, r1
 800100c:	4604      	mov	r4, r0
 800100e:	4611      	mov	r1, r2
  if(huart->gState == HAL_UART_STATE_READY)
 8001010:	d14a      	bne.n	80010a8 <HAL_UART_Transmit+0xa8>
  {
    if((pData == NULL ) || (Size == 0U))
 8001012:	2d00      	cmp	r5, #0
 8001014:	d046      	beq.n	80010a4 <HAL_UART_Transmit+0xa4>
 8001016:	2a00      	cmp	r2, #0
 8001018:	d044      	beq.n	80010a4 <HAL_UART_Transmit+0xa4>
    {
      return  HAL_ERROR;
    }

    /* Process Locked */
    __HAL_LOCK(huart);
 800101a:	f890 3068 	ldrb.w	r3, [r0, #104]	@ 0x68
 800101e:	2b01      	cmp	r3, #1
 8001020:	d042      	beq.n	80010a8 <HAL_UART_Transmit+0xa8>
 8001022:	2301      	movs	r3, #1
 8001024:	f880 3068 	strb.w	r3, [r0, #104]	@ 0x68

    huart->ErrorCode = HAL_UART_ERROR_NONE;
 8001028:	2300      	movs	r3, #0
 800102a:	66c3      	str	r3, [r0, #108]	@ 0x6c
    huart->gState = HAL_UART_STATE_BUSY_TX;
 800102c:	2321      	movs	r3, #33	@ 0x21
 800102e:	f880 3069 	strb.w	r3, [r0, #105]	@ 0x69

    /* Init tickstart for timeout managment*/
    tickstart = HAL_GetTick();
 8001032:	f7ff faf1 	bl	8000618 <HAL_GetTick>

    huart->TxXferSize = Size;
 8001036:	f8a4 1050 	strh.w	r1, [r4, #80]	@ 0x50
    tickstart = HAL_GetTick();
 800103a:	4607      	mov	r7, r0
    huart->TxXferCount = Size;
 800103c:	f8a4 1052 	strh.w	r1, [r4, #82]	@ 0x52
    while(huart->TxXferCount > 0U)
 8001040:	f8b4 2052 	ldrh.w	r2, [r4, #82]	@ 0x52
 8001044:	b292      	uxth	r2, r2
 8001046:	b962      	cbnz	r2, 8001062 <HAL_UART_Transmit+0x62>
      else
      {
        huart->Instance->TDR = (*pData++ & (uint8_t)0xFFU);
      }
    }
    if(UART_WaitOnFlagUntilTimeout(huart, UART_FLAG_TC, RESET, tickstart, Timeout) != HAL_OK)
 8001048:	9600      	str	r6, [sp, #0]
 800104a:	463b      	mov	r3, r7
 800104c:	2140      	movs	r1, #64	@ 0x40
 800104e:	4620      	mov	r0, r4
 8001050:	f7ff ff4a 	bl	8000ee8 <UART_WaitOnFlagUntilTimeout>
 8001054:	b998      	cbnz	r0, 800107e <HAL_UART_Transmit+0x7e>
    {
      return HAL_TIMEOUT;
    }

    /* At end of Tx process, restore huart->gState to Ready */
    huart->gState = HAL_UART_STATE_READY;
 8001056:	2320      	movs	r3, #32
 8001058:	f884 3069 	strb.w	r3, [r4, #105]	@ 0x69

    /* Process Unlocked */
    __HAL_UNLOCK(huart);
 800105c:	f884 0068 	strb.w	r0, [r4, #104]	@ 0x68

    return HAL_OK;
 8001060:	e00e      	b.n	8001080 <HAL_UART_Transmit+0x80>
      huart->TxXferCount--;
 8001062:	f8b4 2052 	ldrh.w	r2, [r4, #82]	@ 0x52
 8001066:	3a01      	subs	r2, #1
 8001068:	b292      	uxth	r2, r2
 800106a:	f8a4 2052 	strh.w	r2, [r4, #82]	@ 0x52
      if(UART_WaitOnFlagUntilTimeout(huart, UART_FLAG_TXE, RESET, tickstart, Timeout) != HAL_OK)
 800106e:	463b      	mov	r3, r7
 8001070:	9600      	str	r6, [sp, #0]
 8001072:	2200      	movs	r2, #0
 8001074:	2180      	movs	r1, #128	@ 0x80
 8001076:	4620      	mov	r0, r4
 8001078:	f7ff ff36 	bl	8000ee8 <UART_WaitOnFlagUntilTimeout>
 800107c:	b110      	cbz	r0, 8001084 <HAL_UART_Transmit+0x84>
        return HAL_TIMEOUT;
 800107e:	2003      	movs	r0, #3
  }
  else
  {
    return HAL_BUSY;
  }
}
 8001080:	b003      	add	sp, #12
 8001082:	bdf0      	pop	{r4, r5, r6, r7, pc}
      if ((huart->Init.WordLength == UART_WORDLENGTH_9B) && (huart->Init.Parity == UART_PARITY_NONE))
 8001084:	68a3      	ldr	r3, [r4, #8]
        huart->Instance->TDR = (*tmp & (uint16_t)0x01FFU);
 8001086:	6822      	ldr	r2, [r4, #0]
      if ((huart->Init.WordLength == UART_WORDLENGTH_9B) && (huart->Init.Parity == UART_PARITY_NONE))
 8001088:	f5b3 5f80 	cmp.w	r3, #4096	@ 0x1000
 800108c:	d107      	bne.n	800109e <HAL_UART_Transmit+0x9e>
 800108e:	6923      	ldr	r3, [r4, #16]
 8001090:	b92b      	cbnz	r3, 800109e <HAL_UART_Transmit+0x9e>
        huart->Instance->TDR = (*tmp & (uint16_t)0x01FFU);
 8001092:	f835 3b02 	ldrh.w	r3, [r5], #2
 8001096:	f3c3 0308 	ubfx	r3, r3, #0, #9
        huart->Instance->TDR = (*pData++ & (uint8_t)0xFFU);
 800109a:	8513      	strh	r3, [r2, #40]	@ 0x28
 800109c:	e7d0      	b.n	8001040 <HAL_UART_Transmit+0x40>
 800109e:	f815 3b01 	ldrb.w	r3, [r5], #1
 80010a2:	e7fa      	b.n	800109a <HAL_UART_Transmit+0x9a>
      return  HAL_ERROR;
 80010a4:	2001      	movs	r0, #1
 80010a6:	e7eb      	b.n	8001080 <HAL_UART_Transmit+0x80>
    __HAL_LOCK(huart);
 80010a8:	2002      	movs	r0, #2
 80010aa:	e7e9      	b.n	8001080 <HAL_UART_Transmit+0x80>

080010ac <HAL_UART_Receive>:
  * @param Size: amount of data to be received.
  * @param Timeout: Timeout duration.
  * @retval HAL status
  */
HAL_StatusTypeDef HAL_UART_Receive(UART_HandleTypeDef *huart, uint8_t *pData, uint16_t Size, uint32_t Timeout)
{
 80010ac:	e92d 41f3 	stmdb	sp!, {r0, r1, r4, r5, r6, r7, r8, lr}
 80010b0:	461e      	mov	r6, r3
  uint16_t* tmp;
  uint16_t uhMask;
  uint32_t tickstart = 0U;

  /* Check that a Rx process is not already ongoing */
  if(huart->RxState == HAL_UART_STATE_READY)
 80010b2:	f890 306a 	ldrb.w	r3, [r0, #106]	@ 0x6a
 80010b6:	2b20      	cmp	r3, #32
{
 80010b8:	460d      	mov	r5, r1
 80010ba:	4604      	mov	r4, r0
 80010bc:	4611      	mov	r1, r2
  if(huart->RxState == HAL_UART_STATE_READY)
 80010be:	d15c      	bne.n	800117a <HAL_UART_Receive+0xce>
  {
    if((pData == NULL ) || (Size == 0U))
 80010c0:	2d00      	cmp	r5, #0
 80010c2:	d058      	beq.n	8001176 <HAL_UART_Receive+0xca>
 80010c4:	2a00      	cmp	r2, #0
 80010c6:	d056      	beq.n	8001176 <HAL_UART_Receive+0xca>
    {
      return  HAL_ERROR;
    }

    /* Process Locked */
    __HAL_LOCK(huart);
 80010c8:	f890 3068 	ldrb.w	r3, [r0, #104]	@ 0x68
 80010cc:	2b01      	cmp	r3, #1
 80010ce:	d054      	beq.n	800117a <HAL_UART_Receive+0xce>
 80010d0:	2301      	movs	r3, #1
 80010d2:	f880 3068 	strb.w	r3, [r0, #104]	@ 0x68

    huart->Instance->ICR = 0xFFFFFFFF;
 80010d6:	6803      	ldr	r3, [r0, #0]
 80010d8:	f04f 32ff 	mov.w	r2, #4294967295	@ 0xffffffff
 80010dc:	621a      	str	r2, [r3, #32]
    huart->ErrorCode = HAL_UART_ERROR_NONE;
 80010de:	2300      	movs	r3, #0
 80010e0:	66c3      	str	r3, [r0, #108]	@ 0x6c
    huart->RxState = HAL_UART_STATE_BUSY_RX;
 80010e2:	2322      	movs	r3, #34	@ 0x22
 80010e4:	f880 306a 	strb.w	r3, [r0, #106]	@ 0x6a

    /* Init tickstart for timeout managment*/
    tickstart = HAL_GetTick();
 80010e8:	f7ff fa96 	bl	8000618 <HAL_GetTick>

    huart->RxXferSize = Size;
    huart->RxXferCount = Size;

    /* Computation of UART mask to apply to RDR register */
    UART_MASK_COMPUTATION(huart);
 80010ec:	68a3      	ldr	r3, [r4, #8]
    huart->RxXferSize = Size;
 80010ee:	f8a4 1058 	strh.w	r1, [r4, #88]	@ 0x58
    UART_MASK_COMPUTATION(huart);
 80010f2:	f5b3 5f80 	cmp.w	r3, #4096	@ 0x1000
    tickstart = HAL_GetTick();
 80010f6:	4680      	mov	r8, r0
    huart->RxXferCount = Size;
 80010f8:	f8a4 105a 	strh.w	r1, [r4, #90]	@ 0x5a
    UART_MASK_COMPUTATION(huart);
 80010fc:	d115      	bne.n	800112a <HAL_UART_Receive+0x7e>
 80010fe:	6923      	ldr	r3, [r4, #16]
 8001100:	b98b      	cbnz	r3, 8001126 <HAL_UART_Receive+0x7a>
 8001102:	f240 13ff 	movw	r3, #511	@ 0x1ff
 8001106:	f8a4 305c 	strh.w	r3, [r4, #92]	@ 0x5c
    uhMask = huart->Mask;
 800110a:	f8b4 705c 	ldrh.w	r7, [r4, #92]	@ 0x5c

    /* as long as data have to be received */
    while(huart->RxXferCount > 0U)
 800110e:	f8b4 005a 	ldrh.w	r0, [r4, #90]	@ 0x5a
 8001112:	b280      	uxth	r0, r0
 8001114:	b980      	cbnz	r0, 8001138 <HAL_UART_Receive+0x8c>
        *pData++ = (uint8_t)(huart->Instance->RDR & (uint8_t)uhMask);
      }
    }

    /* At end of Rx process, restore huart->RxState to Ready */
    huart->RxState = HAL_UART_STATE_READY;
 8001116:	2320      	movs	r3, #32
 8001118:	f884 306a 	strb.w	r3, [r4, #106]	@ 0x6a

    /* Process Unlocked */
    __HAL_UNLOCK(huart);
 800111c:	f884 0068 	strb.w	r0, [r4, #104]	@ 0x68
  }
  else
  {
    return HAL_BUSY;
  }
}
 8001120:	b002      	add	sp, #8
 8001122:	e8bd 81f0 	ldmia.w	sp!, {r4, r5, r6, r7, r8, pc}
    UART_MASK_COMPUTATION(huart);
 8001126:	23ff      	movs	r3, #255	@ 0xff
 8001128:	e7ed      	b.n	8001106 <HAL_UART_Receive+0x5a>
 800112a:	2b00      	cmp	r3, #0
 800112c:	d1ed      	bne.n	800110a <HAL_UART_Receive+0x5e>
 800112e:	6923      	ldr	r3, [r4, #16]
 8001130:	2b00      	cmp	r3, #0
 8001132:	d0f8      	beq.n	8001126 <HAL_UART_Receive+0x7a>
 8001134:	237f      	movs	r3, #127	@ 0x7f
 8001136:	e7e6      	b.n	8001106 <HAL_UART_Receive+0x5a>
      huart->RxXferCount--;
 8001138:	f8b4 205a 	ldrh.w	r2, [r4, #90]	@ 0x5a
 800113c:	3a01      	subs	r2, #1
 800113e:	b292      	uxth	r2, r2
 8001140:	f8a4 205a 	strh.w	r2, [r4, #90]	@ 0x5a
      if(UART_WaitOnFlagUntilTimeout(huart, UART_FLAG_RXNE, RESET, tickstart, Timeout) != HAL_OK)
 8001144:	4643      	mov	r3, r8
 8001146:	9600      	str	r6, [sp, #0]
 8001148:	2200      	movs	r2, #0
 800114a:	2120      	movs	r1, #32
 800114c:	4620      	mov	r0, r4
 800114e:	f7ff fecb 	bl	8000ee8 <UART_WaitOnFlagUntilTimeout>
 8001152:	b9a0      	cbnz	r0, 800117e <HAL_UART_Receive+0xd2>
      if ((huart->Init.WordLength == UART_WORDLENGTH_9B) && (huart->Init.Parity == UART_PARITY_NONE))
 8001154:	68a2      	ldr	r2, [r4, #8]
        *tmp = (uint16_t)(huart->Instance->RDR & uhMask);
 8001156:	6823      	ldr	r3, [r4, #0]
      if ((huart->Init.WordLength == UART_WORDLENGTH_9B) && (huart->Init.Parity == UART_PARITY_NONE))
 8001158:	f5b2 5f80 	cmp.w	r2, #4096	@ 0x1000
 800115c:	d106      	bne.n	800116c <HAL_UART_Receive+0xc0>
 800115e:	6922      	ldr	r2, [r4, #16]
 8001160:	b922      	cbnz	r2, 800116c <HAL_UART_Receive+0xc0>
        *tmp = (uint16_t)(huart->Instance->RDR & uhMask);
 8001162:	8c9b      	ldrh	r3, [r3, #36]	@ 0x24
 8001164:	403b      	ands	r3, r7
 8001166:	f825 3b02 	strh.w	r3, [r5], #2
        pData +=2U;
 800116a:	e7d0      	b.n	800110e <HAL_UART_Receive+0x62>
        *pData++ = (uint8_t)(huart->Instance->RDR & (uint8_t)uhMask);
 800116c:	8c9b      	ldrh	r3, [r3, #36]	@ 0x24
 800116e:	403b      	ands	r3, r7
 8001170:	f805 3b01 	strb.w	r3, [r5], #1
 8001174:	e7cb      	b.n	800110e <HAL_UART_Receive+0x62>
      return  HAL_ERROR;
 8001176:	2001      	movs	r0, #1
 8001178:	e7d2      	b.n	8001120 <HAL_UART_Receive+0x74>
    __HAL_LOCK(huart);
 800117a:	2002      	movs	r0, #2
 800117c:	e7d0      	b.n	8001120 <HAL_UART_Receive+0x74>
        return HAL_TIMEOUT;
 800117e:	2003      	movs	r0, #3
 8001180:	e7ce      	b.n	8001120 <HAL_UART_Receive+0x74>
 8001182:	0000      	movs	r0, r0

08001184 <Reset_Handler>:
 8001184:	2100      	movs	r1, #0
 8001186:	e003      	b.n	8001190 <LoopCopyDataInit>

08001188 <CopyDataInit>:
 8001188:	4b0b      	ldr	r3, [pc, #44]	@ (80011b8 <LoopForever+0x2>)
 800118a:	585b      	ldr	r3, [r3, r1]
 800118c:	5043      	str	r3, [r0, r1]
 800118e:	3104      	adds	r1, #4

08001190 <LoopCopyDataInit>:
 8001190:	480a      	ldr	r0, [pc, #40]	@ (80011bc <LoopForever+0x6>)
 8001192:	4b0b      	ldr	r3, [pc, #44]	@ (80011c0 <LoopForever+0xa>)
 8001194:	1842      	adds	r2, r0, r1
 8001196:	429a      	cmp	r2, r3
 8001198:	d3f6      	bcc.n	8001188 <CopyDataInit>
 800119a:	4a0a      	ldr	r2, [pc, #40]	@ (80011c4 <LoopForever+0xe>)
 800119c:	e002      	b.n	80011a4 <LoopFillZerobss>

0800119e <FillZerobss>:
 800119e:	2300      	movs	r3, #0
 80011a0:	6013      	str	r3, [r2, #0]
 80011a2:	3204      	adds	r2, #4

080011a4 <LoopFillZerobss>:
 80011a4:	4b08      	ldr	r3, [pc, #32]	@ (80011c8 <LoopForever+0x12>)
 80011a6:	429a      	cmp	r2, r3
 80011a8:	d3f9      	bcc.n	800119e <FillZerobss>
 80011aa:	f3af 8000 	nop.w
 80011ae:	f000 f80f 	bl	80011d0 <__libc_init_array>
 80011b2:	f7ff f81d 	bl	80001f0 <main>

080011b6 <LoopForever>:
 80011b6:	e7fe      	b.n	80011b6 <LoopForever>
 80011b8:	08001254 	.word	0x08001254
 80011bc:	20000000 	.word	0x20000000
 80011c0:	20000000 	.word	0x20000000
 80011c4:	20000000 	.word	0x20000000
 80011c8:	20000158 	.word	0x20000158

080011cc <BusFault_Handler>:
 80011cc:	e7fe      	b.n	80011cc <BusFault_Handler>
 80011ce:	0000      	movs	r0, r0

080011d0 <__libc_init_array>:
 80011d0:	b570      	push	{r4, r5, r6, lr}
 80011d2:	4d0d      	ldr	r5, [pc, #52]	@ (8001208 <__libc_init_array+0x38>)
 80011d4:	4c0d      	ldr	r4, [pc, #52]	@ (800120c <__libc_init_array+0x3c>)
 80011d6:	1b64      	subs	r4, r4, r5
 80011d8:	10a4      	asrs	r4, r4, #2
 80011da:	2600      	movs	r6, #0
 80011dc:	42a6      	cmp	r6, r4
 80011de:	d109      	bne.n	80011f4 <__libc_init_array+0x24>
 80011e0:	4d0b      	ldr	r5, [pc, #44]	@ (8001210 <__libc_init_array+0x40>)
 80011e2:	4c0c      	ldr	r4, [pc, #48]	@ (8001214 <__libc_init_array+0x44>)
 80011e4:	f000 f826 	bl	8001234 <_init>
 80011e8:	1b64      	subs	r4, r4, r5
 80011ea:	10a4      	asrs	r4, r4, #2
 80011ec:	2600      	movs	r6, #0
 80011ee:	42a6      	cmp	r6, r4
 80011f0:	d105      	bne.n	80011fe <__libc_init_array+0x2e>
 80011f2:	bd70      	pop	{r4, r5, r6, pc}
 80011f4:	f855 3b04 	ldr.w	r3, [r5], #4
 80011f8:	4798      	blx	r3
 80011fa:	3601      	adds	r6, #1
 80011fc:	e7ee      	b.n	80011dc <__libc_init_array+0xc>
 80011fe:	f855 3b04 	ldr.w	r3, [r5], #4
 8001202:	4798      	blx	r3
 8001204:	3601      	adds	r6, #1
 8001206:	e7f2      	b.n	80011ee <__libc_init_array+0x1e>
 8001208:	0800124c 	.word	0x0800124c
 800120c:	0800124c 	.word	0x0800124c
 8001210:	0800124c 	.word	0x0800124c
 8001214:	08001250 	.word	0x08001250

08001218 <memcpy>:
 8001218:	440a      	add	r2, r1
 800121a:	4291      	cmp	r1, r2
 800121c:	f100 33ff 	add.w	r3, r0, #4294967295	@ 0xffffffff
 8001220:	d100      	bne.n	8001224 <memcpy+0xc>
 8001222:	4770      	bx	lr
 8001224:	b510      	push	{r4, lr}
 8001226:	f811 4b01 	ldrb.w	r4, [r1], #1
 800122a:	f803 4f01 	strb.w	r4, [r3, #1]!
 800122e:	4291      	cmp	r1, r2
 8001230:	d1f9      	bne.n	8001226 <memcpy+0xe>
 8001232:	bd10      	pop	{r4, pc}

08001234 <_init>:
 8001234:	b5f8      	push	{r3, r4, r5, r6, r7, lr}
 8001236:	bf00      	nop
 8001238:	bcf8      	pop	{r3, r4, r5, r6, r7}
 800123a:	bc08      	pop	{r3}
 800123c:	469e      	mov	lr, r3
 800123e:	4770      	bx	lr

08001240 <_fini>:
 8001240:	b5f8      	push	{r3, r4, r5, r6, r7, lr}
 8001242:	bf00      	nop
 8001244:	bcf8      	pop	{r3, r4, r5, r6, r7}
 8001246:	bc08      	pop	{r3}
 8001248:	469e      	mov	lr, r3
 800124a:	4770      	bx	lr
